  401390:	1000ff77 	b	401170 <main+0x258>
  401394:	02031021 	addu	v0,s0,v1
  401398:	02602021 	move	a0,s3
  40139c:	27a501e0 	addiu	a1,sp,480
  4013a0:	02e0c821 	move	t9,s7
  4013a4:	0320f809 	jalr	t9
  4013a8:	24060008 	li	a2,8
  4013ac:	8fbc0018 	lw	gp,24(sp)
  4013b0:	14400058 	bnez	v0,401514 <main+0x5fc>
  4013b4:	00000000 	nop
  4013b8:	8fa401e0 	lw	a0,480(sp)
  4013bc:	8f9980ec 	lw	t9,-32532(gp)
  4013c0:	00000000 	nop
  4013c4:	0320f809 	jalr	t9
  4013c8:	02642021 	addu	a0,s3,a0
  4013cc:	8fbc0018 	lw	gp,24(sp)
  4013d0:	00000000 	nop
  4013d4:	8f8380c4 	lw	v1,-32572(gp)
  4013d8:	1000ffa1 	b	401260 <main+0x348>
  4013dc:	ac620000 	sw	v0,0(v1)
  4013e0:	8f998060 	lw	t9,-32672(gp)
  4013e4:	8f8280f8 	lw	v0,-32520(gp)
  4013e8:	8f85801c 	lw	a1,-32740(gp)
  4013ec:	8f240000 	lw	a0,0(t9)
  4013f0:	8c460000 	lw	a2,0(v0)
  4013f4:	8f9980b0 	lw	t9,fprintf
  4013f8:	24020006 	li	v0,6
  4013fc:	24a51e0c 	addiu	a1,a1,7692
  401400:	24070005 	li	a3,5
  401404:	0320f809 	jalr	t9
  401408:	afa20010 	sw	v0,16(sp)
  40140c:	8fbc0018 	lw	gp,24(sp)
  401410:	00000000 	nop
  401414:	8f838060 	lw	v1,-32672(gp)
  401418:	8f8280f8 	lw	v0,-32520(gp)
  40141c:	8f85801c 	lw	a1,-32740(gp)
  401420:	8f9980b0 	lw	t9,fprintf
  401424:	8c640000 	lw	a0,0(v1)
  401428:	8c460000 	lw	a2,0(v0)
--
  4014b4:	ac620000 	sw	v0,0(v1)
  4014b8:	8fa401e0 	lw	a0,480(sp)
  4014bc:	8f998080 	lw	t9,-32640(gp)
  4014c0:	00000000 	nop
  4014c4:	0320f809 	jalr	t9
  4014c8:	02642021 	addu	a0,s3,a0
  4014cc:	8fbc0018 	lw	gp,24(sp)
  4014d0:	00000000 	nop
  4014d4:	8f8380ac 	lw	v1,-32596(gp)
  4014d8:	1000ff61 	b	401260 <main+0x348>
  4014dc:	ac620000 	sw	v0,0(v1)
  4014e0:	8f9980a0 	lw	t9,-32608(gp)
  4014e4:	00000000 	nop
  4014e8:	0320f809 	jalr	t9
  4014ec:	02402021 	move	a0,s2
  4014f0:	8fbc0018 	lw	gp,24(sp)
  4014f4:	1040ff61 	beqz	v0,40127c <main+0x364>
  4014f8:	00000000 	nop
  4014fc:	8f9980e0 	lw	t9,-32544(gp)
  401500:	00000000 	nop
  401504:	0320f809 	jalr	t9
  401508:	02c02021 	move	a0,s6
  40150c:	1000ff7f 	b	40130c <main+0x3f4>
  401510:	00000000 	nop
  401514:	8f82801c 	lw	v0,-32740(gp)
  401518:	8f9980b0 	lw	t9,fprintf
  40151c:	8fc40000 	lw	a0,0(s8)
  401520:	24451e34 	addiu	a1,v0,7732
--
  401678:	8f998048 	lw	t9,-32696(gp)
  40167c:	00000000 	nop
  401680:	0320f809 	jalr	t9
  401684:	24050001 	li	a1,1
  401688:	8fbc0018 	lw	gp,24(sp)
  40168c:	2403ffff 	li	v1,-1
  401690:	8f9480c8 	lw	s4,-32568(gp)
  401694:	10430099 	beq	v0,v1,4018fc <main+0x9e4>
  401698:	ae820000 	sw	v0,0(s4)
  40169c:	8f84801c 	lw	a0,-32740(gp)
  4016a0:	8f85801c 	lw	a1,-32740(gp)
  4016a4:	8f99807c 	lw	t9,-32644(gp)
  4016a8:	24841eac 	addiu	a0,a0,7852
  4016ac:	0320f809 	jalr	t9
  4016b0:	24a51ec8 	addiu	a1,a1,7880
  4016b4:	8fbc0018 	lw	gp,24(sp)
  4016b8:	10400014 	beqz	v0,40170c <main+0x7f4>
  4016bc:	00408021 	move	s0,v0
  4016c0:	8f9980e8 	lw	t9,-32536(gp)
  4016c4:	00000000 	nop
  4016c8:	0320f809 	jalr	t9
  4016cc:	00000000 	nop
  4016d0:	8fbc0018 	lw	gp,24(sp)
  4016d4:	02002021 	move	a0,s0
  4016d8:	8f85801c 	lw	a1,-32740(gp)
  4016dc:	8f9980b0 	lw	t9,fprintf
  4016e0:	24a51ecc 	addiu	a1,a1,7884
  4016e4:	0320f809 	jalr	t9
[[0;32m+[0m][0;32m /home/test/Desktop/MIPS-dir810_FW202B01-03/sbin/watchdog (-rwxr-xr-x test test) -[0m Vulnerable function: [0;36mfprintf [0m/ [0;31mFunction count: 4 [0m
[0m
