  400cbc:	8f998040 	lw	t9,-32704(gp)
  400cc0:	8c440000 	lw	a0,0(v0)
  400cc4:	0320f809 	jalr	t9
  400cc8:	00000000 	nop
  400ccc:	8fbc0018 	lw	gp,24(sp)
  400cd0:	3c030001 	lui	v1,0x1
  400cd4:	346386a0 	ori	v1,v1,0x86a0
  400cd8:	8f848018 	lw	a0,-32744(gp)
  400cdc:	0062182b 	sltu	v1,v1,v0
  400ce0:	10600027 	beqz	v1,400d80 <main+0x240>
  400ce4:	ac8223d8 	sw	v0,9176(a0)
  400ce8:	8f84801c 	lw	a0,-32740(gp)
  400cec:	8f9980ac 	lw	t9,-32596(gp)
  400cf0:	10000039 	b	400dd8 <main+0x298>
  400cf4:	24841fcc 	addiu	a0,a0,8140
  400cf8:	8f828018 	lw	v0,-32744(gp)
  400cfc:	24030001 	li	v1,1
  400d00:	1000001f 	b	400d80 <main+0x240>
  400d04:	ac4324d8 	sw	v1,9432(v0)
  400d08:	8f828018 	lw	v0,-32744(gp)
  400d0c:	24030001 	li	v1,1
  400d10:	1000001b 	b	400d80 <main+0x240>
  400d14:	ac4324d0 	sw	v1,9424(v0)
  400d18:	8f90801c 	lw	s0,-32740(gp)
  400d1c:	8f84801c 	lw	a0,-32740(gp)
  400d20:	8f9980bc 	lw	t9,printf
  400d24:	24841ff4 	addiu	a0,a0,8180
  400d28:	0320f809 	jalr	t9
  400d2c:	26051fe4 	addiu	a1,s0,8164
  400d30:	8fbc0018 	lw	gp,24(sp)
  400d34:	26051fe4 	addiu	a1,s0,8164
  400d38:	8f84801c 	lw	a0,-32740(gp)
  400d3c:	8f9980bc 	lw	t9,printf
  400d40:	00000000 	nop
  400d44:	0320f809 	jalr	t9
  400d48:	2484203c 	addiu	a0,a0,8252
  400d4c:	8fbc0018 	lw	gp,24(sp)
  400d50:	00000000 	nop
  400d54:	8f84801c 	lw	a0,-32740(gp)
  400d58:	8f9980bc 	lw	t9,printf
  400d5c:	00000000 	nop
  400d60:	0320f809 	jalr	t9
--
  400dd4:	2484213c 	addiu	a0,a0,8508
  400dd8:	0320f809 	jalr	t9
  400ddc:	00000000 	nop
  400de0:	10000107 	b	401200 <main+0x6c0>
  400de4:	00000000 	nop
  400de8:	8f998070 	lw	t9,-32656(gp)
  400dec:	8f8580c4 	lw	a1,-32572(gp)
  400df0:	0320f809 	jalr	t9
  400df4:	2404000e 	li	a0,14
  400df8:	8fbc0018 	lw	gp,24(sp)
  400dfc:	3c04005b 	lui	a0,0x5b
  400e00:	8f99808c 	lw	t9,-32628(gp)
  400e04:	00000000 	nop
  400e08:	0320f809 	jalr	t9
  400e0c:	34848d80 	ori	a0,a0,0x8d80
  400e10:	8fbc0018 	lw	gp,24(sp)
  400e14:	2404000e 	li	a0,14
  400e18:	8f998070 	lw	t9,-32656(gp)
  400e1c:	00000000 	nop
  400e20:	0320f809 	jalr	t9
  400e24:	24050001 	li	a1,1
  400e28:	8fbc0018 	lw	gp,24(sp)
  400e2c:	00000000 	nop
  400e30:	8f908018 	lw	s0,-32744(gp)
  400e34:	8f84801c 	lw	a0,-32740(gp)
  400e38:	8f9980bc 	lw	t9,printf
  400e3c:	8e0523d0 	lw	a1,9168(s0)
  400e40:	0320f809 	jalr	t9
--
  400f94:	8fbc0018 	lw	gp,24(sp)
  400f98:	468020a1 	cvt.d.w	$f2,$f4
  400f9c:	4622a082 	mul.d	$f2,$f20,$f2
  400fa0:	c6640000 	lwc1	$f4,0(s3)
  400fa4:	26100008 	addiu	s0,s0,8
  400fa8:	c6650004 	lwc1	$f5,4(s3)
  400fac:	26520400 	addiu	s2,s2,1024
  400fb0:	46220001 	sub.d	$f0,$f0,$f2
  400fb4:	46202100 	add.d	$f4,$f4,$f0
  400fb8:	e6640000 	swc1	$f4,0(s3)
  400fbc:	0621ffef 	bgez	s1,400f7c <main+0x43c>
  400fc0:	e6650004 	swc1	$f5,4(s3)
  400fc4:	8f97801c 	lw	s7,-32740(gp)
  400fc8:	00008821 	move	s1,zero
  400fcc:	c6e021e0 	lwc1	$f0,8672(s7)
  400fd0:	241201dc 	li	s2,476
  400fd4:	c6e121e4 	lwc1	$f1,8676(s7)
  400fd8:	00000000 	nop
  400fdc:	46202002 	mul.d	$f0,$f4,$f0
  400fe0:	e6600000 	swc1	$f0,0(s3)
  400fe4:	e6610004 	swc1	$f1,4(s3)
  400fe8:	001180c0 	sll	s0,s1,0x3
  400fec:	269524e0 	addiu	s5,s4,9440
  400ff0:	02158021 	addu	s0,s0,s5
  400ff4:	8f84801c 	lw	a0,-32740(gp)
  400ff8:	8f9980bc 	lw	t9,printf
  400ffc:	8e060000 	lw	a2,0(s0)
  401000:	8e070004 	lw	a3,4(s0)
  401004:	02402821 	move	a1,s2
  401008:	0320f809 	jalr	t9
  40100c:	24842180 	addiu	a0,a0,8576
  401010:	8fbc0018 	lw	gp,24(sp)
  401014:	8e040000 	lw	a0,0(s0)
  401018:	8f9980c0 	lw	t9,-32576(gp)
  40101c:	8e050004 	lw	a1,4(s0)
  401020:	0320f809 	jalr	t9
  401024:	26310001 	addiu	s1,s1,1
  401028:	c66c0000 	lwc1	$f12,0(s3)
  40102c:	8fbc0018 	lw	gp,24(sp)
  401030:	c66d0004 	lwc1	$f13,4(s3)
  401034:	8f99804c 	lw	t9,-32692(gp)
  401038:	462c0301 	sub.d	$f12,$f0,$f12
  40103c:	0320f809 	jalr	t9
  401040:	26520400 	addiu	s2,s2,1024
  401044:	8fbc0018 	lw	gp,24(sp)
  401048:	ae020000 	sw	v0,0(s0)
  40104c:	8f84801c 	lw	a0,-32740(gp)
  401050:	8f9980bc 	lw	t9,printf
  401054:	ae030004 	sw	v1,4(s0)
  401058:	248421a0 	addiu	a0,a0,8608
--
  401098:	46800521 	cvt.d.w	$f20,$f0
  40109c:	4620a503 	div.d	$f20,$f20,$f0
  4010a0:	c6c00000 	lwc1	$f0,0(s6)
  4010a4:	2610ffff 	addiu	s0,s0,-1
  4010a8:	c6c10004 	lwc1	$f1,4(s6)
  4010ac:	8fbc0018 	lw	gp,24(sp)
  4010b0:	26312000 	addiu	s1,s1,8192
  4010b4:	26520008 	addiu	s2,s2,8
  4010b8:	46340180 	add.d	$f6,$f0,$f20
  4010bc:	e6c60000 	swc1	$f6,0(s6)
  4010c0:	0601fff0 	bgez	s0,401084 <main+0x544>
  4010c4:	e6c70004 	swc1	$f7,4(s6)
  4010c8:	8f82801c 	lw	v0,-32740(gp)
  4010cc:	c6620000 	lwc1	$f2,0(s3)
  4010d0:	c44021f0 	lwc1	$f0,8688(v0)
  4010d4:	c6630004 	lwc1	$f3,4(s3)
  4010d8:	c44121f4 	lwc1	$f1,8692(v0)
  4010dc:	8f82801c 	lw	v0,-32740(gp)
  4010e0:	46201083 	div.d	$f2,$f2,$f0
  4010e4:	c44021e8 	lwc1	$f0,8680(v0)
  4010e8:	c6e421e0 	lwc1	$f4,8672(s7)
  4010ec:	c44121ec 	lwc1	$f1,8684(v0)
  4010f0:	c6e521e4 	lwc1	$f5,8676(s7)
  4010f4:	46203002 	mul.d	$f0,$f6,$f0
  4010f8:	8f84801c 	lw	a0,-32740(gp)
  4010fc:	8f9980bc 	lw	t9,printf
  401100:	248421b0 	addiu	a0,a0,8624
  401104:	46240002 	mul.d	$f0,$f0,$f4
--
  4018e8:	00000000 	nop
  4018ec:	24020001 	li	v0,1
  4018f0:	1282000d 	beq	s4,v0,401928 <xcollect_get_rtt+0x50c>
  4018f4:	00000000 	nop
  4018f8:	8ec30004 	lw	v1,4(s6)
  4018fc:	00000000 	nop
  401900:	0223102a 	slt	v0,s1,v1
  401904:	14400008 	bnez	v0,401928 <xcollect_get_rtt+0x50c>
  401908:	00000000 	nop
  40190c:	14710008 	bne	v1,s1,401930 <xcollect_get_rtt+0x514>
  401910:	00000000 	nop
  401914:	8ec20000 	lw	v0,0(s6)
  401918:	00000000 	nop
  40191c:	0202102b 	sltu	v0,s0,v0
  401920:	10400003 	beqz	v0,401930 <xcollect_get_rtt+0x514>
  401924:	00000000 	nop
  401928:	aed00000 	sw	s0,0(s6)
  40192c:	aed10004 	sw	s1,4(s6)
  401930:	8f828018 	lw	v0,-32744(gp)
  401934:	00000000 	nop
  401938:	8c4224f0 	lw	v0,9456(v0)
  40193c:	00000000 	nop
  401940:	10400025 	beqz	v0,4019d8 <xcollect_get_rtt+0x5bc>
  401944:	00000000 	nop
  401948:	8f84801c 	lw	a0,-32740(gp)
  40194c:	8f9980bc 	lw	t9,printf
  401950:	24842304 	addiu	a0,a0,8964
  401954:	0320f809 	jalr	t9
  401958:	02e02821 	move	a1,s7
  40195c:	8fbc0018 	lw	gp,24(sp)
  401960:	264224fc 	addiu	v0,s2,9468
  401964:	8f84801c 	lw	a0,-32740(gp)
  401968:	8f9980bc 	lw	t9,printf
  40196c:	8e4524fc 	lw	a1,9468(s2)
  401970:	8c460004 	lw	a2,4(v0)
  401974:	0320f809 	jalr	t9
  401978:	24842314 	addiu	a0,a0,8980
  40197c:	8fbc0018 	lw	gp,24(sp)
  401980:	26622504 	addiu	v0,s3,9476
  401984:	8f84801c 	lw	a0,-32740(gp)
  401988:	8f9980bc 	lw	t9,printf
  40198c:	8c460004 	lw	a2,4(v0)
  401990:	8e652504 	lw	a1,9476(s3)
  401994:	0320f809 	jalr	t9
  401998:	24842330 	addiu	a0,a0,9008
  40199c:	8fbc0018 	lw	gp,24(sp)
  4019a0:	02003021 	move	a2,s0
  4019a4:	8f84801c 	lw	a0,-32740(gp)
  4019a8:	8f9980bc 	lw	t9,printf
  4019ac:	2484234c 	addiu	a0,a0,9036
  4019b0:	0320f809 	jalr	t9
[[0;32m+[0m][0;32m /home/test/Desktop/MIPS-dir810_FW202B01-03/sbin/ult (-rwxr-xr-x test test) -[0m Vulnerable function: [0;36mprintf [0m/ [0;31mFunction count: 11 [0m
[0m
