  40124c:	02402021 	move	a0,s2
  401250:	0320f809 	jalr	t9
  401254:	27a50050 	addiu	a1,sp,80
  401258:	2403ffff 	li	v1,-1
  40125c:	8fbc0018 	lw	gp,24(sp)
  401260:	104300a4 	beq	v0,v1,4014f4 <main+0x304>
  401264:	00002021 	move	a0,zero
  401268:	8f85801c 	lw	a1,-32740(gp)
  40126c:	8f998080 	lw	t9,-32640(gp)
  401270:	24a53544 	addiu	a1,a1,13636
  401274:	0320f809 	jalr	t9
  401278:	02402021 	move	a0,s2
  40127c:	8fbc0018 	lw	gp,24(sp)
  401280:	10400017 	beqz	v0,4012e0 <main+0xf0>
  401284:	00408021 	move	s0,v0
  401288:	8f85801c 	lw	a1,-32740(gp)
  40128c:	8f9980ec 	lw	t9,-32532(gp)
  401290:	27b100e8 	addiu	s1,sp,232
  401294:	24a53af4 	addiu	a1,a1,15092
  401298:	00402021 	move	a0,v0
  40129c:	0320f809 	jalr	t9
  4012a0:	02203021 	move	a2,s1
  4012a4:	8fbc0018 	lw	gp,24(sp)
  4012a8:	14530007 	bne	v0,s3,4012c8 <main+0xd8>
  4012ac:	00000000 	nop
  4012b0:	8f998118 	lw	t9,strcpy
  4012b4:	02202821 	move	a1,s1
  4012b8:	0320f809 	jalr	t9
--
  40137c:	10620013 	beq	v1,v0,4013cc <main+0x1dc>
  401380:	00000000 	nop
  401384:	8f9980d4 	lw	t9,-32556(gp)
  401388:	8f84801c 	lw	a0,-32740(gp)
  40138c:	03202821 	move	a1,t9
  401390:	8f9080c4 	lw	s0,-32572(gp)
  401394:	8f998110 	lw	t9,-32496(gp)
  401398:	10c00007 	beqz	a2,4013b8 <main+0x1c8>
  40139c:	24843560 	addiu	a0,a0,13664
  4013a0:	8f84801c 	lw	a0,-32740(gp)
  4013a4:	24020050 	li	v0,80
  4013a8:	10620010 	beq	v1,v0,4013ec <main+0x1fc>
  4013ac:	24843564 	addiu	a0,a0,13668
  4013b0:	10000038 	b	401494 <main+0x2a4>
  4013b4:	00000000 	nop
  4013b8:	24020054 	li	v0,84
  4013bc:	1062001d 	beq	v1,v0,401434 <main+0x244>
  4013c0:	00000000 	nop
  4013c4:	10000033 	b	401494 <main+0x2a4>
  4013c8:	00000000 	nop
  4013cc:	8e050000 	lw	a1,0(s0)
  4013d0:	0320f809 	jalr	t9
  4013d4:	00000000 	nop
  4013d8:	8fbc0018 	lw	gp,24(sp)
  4013dc:	8e050000 	lw	a1,0(s0)
  4013e0:	8f998118 	lw	t9,strcpy
  4013e4:	10000026 	b	401480 <main+0x290>
  4013e8:	27a40020 	addiu	a0,sp,32
  4013ec:	8e050000 	lw	a1,0(s0)
  4013f0:	0320f809 	jalr	t9
  4013f4:	00000000 	nop
  4013f8:	8fbc0018 	lw	gp,24(sp)
  4013fc:	8e040000 	lw	a0,0(s0)
  401400:	8f99801c 	lw	t9,-32740(gp)
  401404:	00000000 	nop
  401408:	27390dc0 	addiu	t9,t9,3520
  40140c:	0320f809 	jalr	t9
  401410:	00000000 	nop
  401414:	8fbc0018 	lw	gp,24(sp)
  401418:	00000000 	nop
  40141c:	8f998118 	lw	t9,strcpy
  401420:	10400022 	beqz	v0,4014ac <main+0x2bc>
  401424:	02e02021 	move	a0,s7
  401428:	8e050000 	lw	a1,0(s0)
  40142c:	10000014 	b	401480 <main+0x290>
  401430:	00000000 	nop
  401434:	00a0c821 	move	t9,a1
  401438:	0320f809 	jalr	t9
  40143c:	00000000 	nop
  401440:	8fbc0018 	lw	gp,24(sp)
  401444:	24030001 	li	v1,1
  401448:	8f908018 	lw	s0,-32744(gp)
  40144c:	8f828018 	lw	v0,-32744(gp)
  401450:	8f998078 	lw	t9,-32648(gp)
  401454:	26103e88 	addiu	s0,s0,16008
  401458:	02002021 	move	a0,s0
  40145c:	00002821 	move	a1,zero
  401460:	ac433e84 	sw	v1,16004(v0)
  401464:	0320f809 	jalr	t9
  401468:	24060014 	li	a2,20
  40146c:	8fbc0018 	lw	gp,24(sp)
  401470:	02002021 	move	a0,s0
  401474:	8f8280c4 	lw	v0,-32572(gp)
  401478:	8f998118 	lw	t9,strcpy
  40147c:	8c450000 	lw	a1,0(v0)
  401480:	0320f809 	jalr	t9
--
  40184c:	0000a021 	move	s4,zero
  401850:	0320f809 	jalr	t9
  401854:	afa001c8 	sw	zero,456(sp)
  401858:	8fbc0018 	lw	gp,24(sp)
  40185c:	afb00010 	sw	s0,16(sp)
  401860:	8f85801c 	lw	a1,-32740(gp)
  401864:	8f998088 	lw	t9,-32632(gp)
  401868:	24a536e4 	addiu	a1,a1,14052
  40186c:	02202021 	move	a0,s1
  401870:	27a60858 	addiu	a2,sp,2136
  401874:	0320f809 	jalr	t9
  401878:	27a7085c 	addiu	a3,sp,2140
  40187c:	8fbc0018 	lw	gp,24(sp)
  401880:	18400020 	blez	v0,401904 <main+0x714>
  401884:	00000000 	nop
  401888:	8fa2085c 	lw	v0,2140(sp)
  40188c:	8fa30858 	lw	v1,2136(sp)
  401890:	24420001 	addiu	v0,v0,1
  401894:	a7a201ca 	sh	v0,458(sp)
  401898:	3064ffff 	andi	a0,v1,0xffff
  40189c:	24020009 	li	v0,9
  4018a0:	1482000b 	bne	a0,v0,4018d0 <main+0x6e0>
  4018a4:	a7a301c8 	sh	v1,456(sp)
  4018a8:	8f858018 	lw	a1,-32744(gp)
  4018ac:	8e423e84 	lw	v0,16004(s2)
  4018b0:	8f998118 	lw	t9,strcpy
  4018b4:	24a53e88 	addiu	a1,a1,16008
  4018b8:	10400005 	beqz	v0,4018d0 <main+0x6e0>
--
  4025dc:	34028901 	li	v0,0x8901
  4025e0:	1462003a 	bne	v1,v0,4026cc <main+0x14dc>
  4025e4:	00000000 	nop
  4025e8:	308400ff 	andi	a0,a0,0xff
  4025ec:	30a200ff 	andi	v0,a1,0xff
  4025f0:	00042200 	sll	a0,a0,0x8
  4025f4:	8f998054 	lw	t9,-32684(gp)
  4025f8:	10000003 	b	402608 <main+0x1418>
  4025fc:	00822025 	or	a0,a0,v0
  402600:	8f998070 	lw	t9,-32656(gp)
  402604:	34048004 	li	a0,0x8004
  402608:	0320f809 	jalr	t9
  40260c:	2625000c 	addiu	a1,s1,12
  402610:	8fbc0018 	lw	gp,24(sp)
  402614:	10000017 	b	402674 <main+0x1484>
  402618:	00409021 	move	s2,v0
  40261c:	8f998058 	lw	t9,-32680(gp)
  402620:	34048102 	li	a0,0x8102
  402624:	02e02821 	move	a1,s7
  402628:	0320f809 	jalr	t9
  40262c:	27a70840 	addiu	a3,sp,2112
  402630:	8fbc0018 	lw	gp,24(sp)
  402634:	00409021 	move	s2,v0
  402638:	10000023 	b	4026c8 <main+0x14d8>
  40263c:	24100001 	li	s0,1
  402640:	8f998118 	lw	t9,strcpy
  402644:	27b00840 	addiu	s0,sp,2112
  402648:	02002021 	move	a0,s0
[[0;32m+[0m][0;32m /home/test/Desktop/MIPS-dir810_FW202B01-03/sbin/bulkagent (-rwxr-xr-x test test) -[0m Vulnerable function: [0;36mstrcpy [0m/ [0;31mFunction Count: 6 [0m/ [0;33mstrlen: 0 [0m
[0m
