  400de4:	00000000 	nop
  400de8:	0320f809 	jalr	t9
  400dec:	00808821 	move	s1,a0
  400df0:	8fbc0010 	lw	gp,16(sp)
  400df4:	02221021 	addu	v0,s1,v0
  400df8:	8f998078 	lw	t9,-32648(gp)
  400dfc:	8043ffff 	lb	v1,-1(v0)
  400e00:	27b00018 	addiu	s0,sp,24
  400e04:	2402002f 	li	v0,47
  400e08:	03203821 	move	a3,t9
  400e0c:	02002021 	move	a0,s0
  400e10:	00002821 	move	a1,zero
  400e14:	8f9980d4 	lw	t9,-32556(gp)
  400e18:	10620004 	beq	v1,v0,400e2c <_ftext+0x24c>
  400e1c:	24060028 	li	a2,40
  400e20:	8f84801c 	lw	a0,-32740(gp)
  400e24:	10000025 	b	400ebc <_ftext+0x2dc>
  400e28:	248434a0 	addiu	a0,a0,13472
  400e2c:	00e0c821 	move	t9,a3
  400e30:	0320f809 	jalr	t9
  400e34:	00000000 	nop
  400e38:	8fbc0010 	lw	gp,16(sp)
  400e3c:	02002021 	move	a0,s0
  400e40:	8f87801c 	lw	a3,-32740(gp)
  400e44:	8f85801c 	lw	a1,-32740(gp)
  400e48:	8f99805c 	lw	t9,sprintf
  400e4c:	02203021 	move	a2,s1
  400e50:	24e734d4 	addiu	a3,a3,13524
--
  401280:	10400017 	beqz	v0,4012e0 <main+0xf0>
  401284:	00408021 	move	s0,v0
  401288:	8f85801c 	lw	a1,-32740(gp)
  40128c:	8f9980ec 	lw	t9,-32532(gp)
  401290:	27b100e8 	addiu	s1,sp,232
  401294:	24a53af4 	addiu	a1,a1,15092
  401298:	00402021 	move	a0,v0
  40129c:	0320f809 	jalr	t9
  4012a0:	02203021 	move	a2,s1
  4012a4:	8fbc0018 	lw	gp,24(sp)
  4012a8:	14530007 	bne	v0,s3,4012c8 <main+0xd8>
  4012ac:	00000000 	nop
  4012b0:	8f998118 	lw	t9,-32488(gp)
  4012b4:	02202821 	move	a1,s1
  4012b8:	0320f809 	jalr	t9
  4012bc:	27a40020 	addiu	a0,sp,32
  4012c0:	8fbc0018 	lw	gp,24(sp)
  4012c4:	00000000 	nop
  4012c8:	8f99806c 	lw	t9,-32660(gp)
  4012cc:	00000000 	nop
  4012d0:	0320f809 	jalr	t9
  4012d4:	02002021 	move	a0,s0
  4012d8:	8fbc0018 	lw	gp,24(sp)
  4012dc:	00000000 	nop
  4012e0:	8f85801c 	lw	a1,-32740(gp)
  4012e4:	8f99805c 	lw	t9,sprintf
  4012e8:	27b000f8 	addiu	s0,sp,248
  4012ec:	24a53548 	addiu	a1,a1,13640
--
  402230:	97a602fa 	lhu	a2,762(sp)
  402234:	0320f809 	jalr	t9
  402238:	24843900 	addiu	a0,a0,14592
  40223c:	8fbc0018 	lw	gp,24(sp)
  402240:	8a260043 	lwl	a2,67(s1)
  402244:	8a270047 	lwl	a3,71(s1)
  402248:	8f84801c 	lw	a0,-32740(gp)
  40224c:	8f998110 	lw	t9,-32496(gp)
  402250:	9a260040 	lwr	a2,64(s1)
  402254:	9a270044 	lwr	a3,68(s1)
  402258:	24843938 	addiu	a0,a0,14648
  40225c:	0320f809 	jalr	t9
  402260:	02202821 	move	a1,s1
  402264:	8fbc0018 	lw	gp,24(sp)
  402268:	02002021 	move	a0,s0
  40226c:	8f99801c 	lw	t9,-32740(gp)
  402270:	8f868108 	lw	a2,-32504(gp)
  402274:	2739102c 	addiu	t9,t9,4140
  402278:	0320f809 	jalr	t9
  40227c:	02202821 	move	a1,s1
  402280:	8fbc0018 	lw	gp,24(sp)
  402284:	10400083 	beqz	v0,402494 <main+0x12a4>
  402288:	27b60380 	addiu	s6,sp,896
  40228c:	afbe0868 	sw	s8,2152(sp)
  402290:	8f85801c 	lw	a1,-32740(gp)
  402294:	8f99805c 	lw	t9,sprintf
  402298:	8a300043 	lwl	s0,67(s1)
  40229c:	8a330047 	lwl	s3,71(s1)
--
  402358:	02402021 	move	a0,s2
  40235c:	8fbc0018 	lw	gp,24(sp)
  402360:	1000ffe3 	b	4022f0 <main+0x1100>
  402364:	00000000 	nop
  402368:	8f99806c 	lw	t9,-32660(gp)
  40236c:	00000000 	nop
  402370:	0320f809 	jalr	t9
  402374:	02402021 	move	a0,s2
  402378:	8fbc0018 	lw	gp,24(sp)
  40237c:	00000000 	nop
  402380:	8f9980f4 	lw	t9,-32524(gp)
  402384:	00000000 	nop
  402388:	0320f809 	jalr	t9
  40238c:	02c02021 	move	a0,s6
  402390:	8fbc0018 	lw	gp,24(sp)
  402394:	00000000 	nop
  402398:	8f9980d4 	lw	t9,-32556(gp)
  40239c:	10530025 	beq	v0,s3,402434 <main+0x1244>
  4023a0:	27b007c0 	addiu	s0,sp,1984
  4023a4:	8f84801c 	lw	a0,-32740(gp)
  4023a8:	0320f809 	jalr	t9
  4023ac:	24843960 	addiu	a0,a0,14688
  4023b0:	8fbc0018 	lw	gp,24(sp)
  4023b4:	02002021 	move	a0,s0
  4023b8:	8f85801c 	lw	a1,-32740(gp)
  4023bc:	8f99805c 	lw	t9,sprintf
  4023c0:	24a53970 	addiu	a1,a1,14704
  4023c4:	02e03021 	move	a2,s7
--
  402a1c:	0320f809 	jalr	t9
  402a20:	24843a88 	addiu	a0,a0,14984
  402a24:	8fbc0010 	lw	gp,16(sp)
  402a28:	8fbf0018 	lw	ra,24(sp)
  402a2c:	8f9980c8 	lw	t9,-32568(gp)
  402a30:	24040003 	li	a0,3
  402a34:	03200008 	jr	t9
  402a38:	27bd0020 	addiu	sp,sp,32

00402a3c <remove_lang>:
  402a3c:	3c1c0005 	lui	gp,0x5
  402a40:	279c9304 	addiu	gp,gp,-27900
  402a44:	0399e021 	addu	gp,gp,t9
  402a48:	27bdffa0 	addiu	sp,sp,-96
  402a4c:	afbf0058 	sw	ra,88(sp)
  402a50:	afbc0010 	sw	gp,16(sp)
  402a54:	8f84801c 	lw	a0,-32740(gp)
  402a58:	8f9980d4 	lw	t9,-32556(gp)
  402a5c:	00000000 	nop
  402a60:	0320f809 	jalr	t9
  402a64:	24843a98 	addiu	a0,a0,15000
  402a68:	8fbc0010 	lw	gp,16(sp)
  402a6c:	27a40018 	addiu	a0,sp,24
  402a70:	8f85801c 	lw	a1,-32740(gp)
  402a74:	8f86801c 	lw	a2,-32740(gp)
  402a78:	8f99805c 	lw	t9,sprintf
  402a7c:	24a53548 	addiu	a1,a1,13640
  402a80:	0320f809 	jalr	t9
--
  402b14:	00000000 	nop
  402b18:	10820023 	beq	a0,v0,402ba8 <update_HWinfo+0xf4>
  402b1c:	34028008 	li	v0,0x8008
  402b20:	1082003e 	beq	a0,v0,402c1c <update_HWinfo+0x168>
  402b24:	00000000 	nop
  402b28:	10000066 	b	402cc4 <update_HWinfo+0x210>
  402b2c:	00000000 	nop
  402b30:	10820056 	beq	a0,v0,402c8c <update_HWinfo+0x1d8>
  402b34:	0044102a 	slt	v0,v0,a0
  402b38:	14400008 	bnez	v0,402b5c <update_HWinfo+0xa8>
  402b3c:	3402800e 	li	v0,0x800e
  402b40:	3402800a 	li	v0,0x800a
  402b44:	1082003d 	beq	a0,v0,402c3c <update_HWinfo+0x188>
  402b48:	3402800b 	li	v0,0x800b
  402b4c:	1082003f 	beq	a0,v0,402c4c <update_HWinfo+0x198>
  402b50:	00000000 	nop
  402b54:	1000005b 	b	402cc4 <update_HWinfo+0x210>
  402b58:	00000000 	nop
  402b5c:	1082004f 	beq	a0,v0,402c9c <update_HWinfo+0x1e8>
  402b60:	34028901 	li	v0,0x8901
  402b64:	10820051 	beq	a0,v0,402cac <update_HWinfo+0x1f8>
  402b68:	00000000 	nop
  402b6c:	10000055 	b	402cc4 <update_HWinfo+0x210>
  402b70:	00000000 	nop
  402b74:	8f85801c 	lw	a1,-32740(gp)
  402b78:	8f99805c 	lw	t9,sprintf
  402b7c:	10000004 	b	402b90 <update_HWinfo+0xdc>
  402b80:	24a53ac0 	addiu	a1,a1,15040
  402b84:	8f85801c 	lw	a1,-32740(gp)
  402b88:	8f99805c 	lw	t9,sprintf
  402b8c:	24a53adc 	addiu	a1,a1,15068
  402b90:	02003021 	move	a2,s0
--
  402ba8:	00003021 	move	a2,zero
  402bac:	2409003a 	li	t1,58
  402bb0:	27a80020 	addiu	t0,sp,32
  402bb4:	24070011 	li	a3,17
  402bb8:	90a40000 	lbu	a0,0(a1)
  402bbc:	00c81821 	addu	v1,a2,t0
  402bc0:	00041600 	sll	v0,a0,0x18
  402bc4:	00021603 	sra	v0,v0,0x18
  402bc8:	10490003 	beq	v0,t1,402bd8 <update_HWinfo+0x124>
  402bcc:	24a50001 	addiu	a1,a1,1
  402bd0:	a0640040 	sb	a0,64(v1)
  402bd4:	24c60001 	addiu	a2,a2,1
  402bd8:	14c7fff7 	bne	a2,a3,402bb8 <update_HWinfo+0x104>
  402bdc:	27b00020 	addiu	s0,sp,32
  402be0:	8f84801c 	lw	a0,-32740(gp)
  402be4:	02061021 	addu	v0,s0,a2
  402be8:	8f998110 	lw	t9,-32496(gp)
  402bec:	27b10060 	addiu	s1,sp,96
  402bf0:	24843af8 	addiu	a0,a0,15096
  402bf4:	02202821 	move	a1,s1
  402bf8:	0320f809 	jalr	t9
  402bfc:	a0400040 	sb	zero,64(v0)
  402c00:	8fbc0018 	lw	gp,24(sp)
  402c04:	02002021 	move	a0,s0
  402c08:	8f85801c 	lw	a1,-32740(gp)
  402c0c:	8f99805c 	lw	t9,sprintf
  402c10:	24a53b04 	addiu	a1,a1,15108
  402c14:	1000ffe0 	b	402b98 <update_HWinfo+0xe4>
  402c18:	02203021 	move	a2,s1
  402c1c:	8f85801c 	lw	a1,-32740(gp)
  402c20:	8f99805c 	lw	t9,sprintf
  402c24:	1000ffda 	b	402b90 <update_HWinfo+0xdc>
  402c28:	24a53b1c 	addiu	a1,a1,15132
  402c2c:	8f85801c 	lw	a1,-32740(gp)
  402c30:	8f99805c 	lw	t9,sprintf
  402c34:	1000ffd6 	b	402b90 <update_HWinfo+0xdc>
  402c38:	24a53b34 	addiu	a1,a1,15156
  402c3c:	8f85801c 	lw	a1,-32740(gp)
  402c40:	8f99805c 	lw	t9,sprintf
  402c44:	1000ffd2 	b	402b90 <update_HWinfo+0xdc>
  402c48:	24a53b48 	addiu	a1,a1,15176
  402c4c:	8f84801c 	lw	a0,-32740(gp)
  402c50:	8f86801c 	lw	a2,-32740(gp)
  402c54:	8f87801c 	lw	a3,-32740(gp)
  402c58:	8f998090 	lw	t9,-32624(gp)
  402c5c:	afa50010 	sw	a1,16(sp)
  402c60:	24843b5c 	addiu	a0,a0,15196
  402c64:	24050075 	li	a1,117
  402c68:	24c63cd0 	addiu	a2,a2,15568
  402c6c:	0320f809 	jalr	t9
  402c70:	24e73b6c 	addiu	a3,a3,15212
  402c74:	8fbc0018 	lw	gp,24(sp)
  402c78:	00000000 	nop
  402c7c:	8f85801c 	lw	a1,-32740(gp)
  402c80:	8f99805c 	lw	t9,sprintf
  402c84:	1000ffc2 	b	402b90 <update_HWinfo+0xdc>
  402c88:	24a53b80 	addiu	a1,a1,15232
  402c8c:	8f85801c 	lw	a1,-32740(gp)
  402c90:	8f99805c 	lw	t9,sprintf
  402c94:	1000ffbe 	b	402b90 <update_HWinfo+0xdc>
  402c98:	24a53b94 	addiu	a1,a1,15252
  402c9c:	8f85801c 	lw	a1,-32740(gp)
  402ca0:	8f99805c 	lw	t9,sprintf
  402ca4:	1000ffba 	b	402b90 <update_HWinfo+0xdc>
  402ca8:	24a53bac 	addiu	a1,a1,15276
  402cac:	8f99805c 	lw	t9,sprintf
  402cb0:	00000000 	nop
  402cb4:	0320f809 	jalr	t9
--
  402ce0:	8fb00078 	lw	s0,120(sp)
  402ce4:	03e00008 	jr	ra
  402ce8:	27bd0088 	addiu	sp,sp,136

00402cec <showLED_processing>:
  402cec:	3c1c0005 	lui	gp,0x5
  402cf0:	279c9054 	addiu	gp,gp,-28588
  402cf4:	0399e021 	addu	gp,gp,t9
  402cf8:	27bdffc0 	addiu	sp,sp,-64
  402cfc:	afbf0038 	sw	ra,56(sp)
  402d00:	afbc0010 	sw	gp,16(sp)
  402d04:	8f84801c 	lw	a0,-32740(gp)
  402d08:	8f9980d4 	lw	t9,-32556(gp)
  402d0c:	00000000 	nop
  402d10:	0320f809 	jalr	t9
  402d14:	24843bc4 	addiu	a0,a0,15300
  402d18:	8fbc0010 	lw	gp,16(sp)
  402d1c:	00000000 	nop
  402d20:	8f9980f0 	lw	t9,-32528(gp)
  402d24:	00000000 	nop
  402d28:	0320f809 	jalr	t9
  402d2c:	00000000 	nop
  402d30:	8fbc0010 	lw	gp,16(sp)
  402d34:	27a40018 	addiu	a0,sp,24
  402d38:	8f85801c 	lw	a1,-32740(gp)
  402d3c:	8f99805c 	lw	t9,sprintf
  402d40:	24a53bd4 	addiu	a1,a1,15316
  402d44:	0320f809 	jalr	t9
--
  402d6c:	00000000 	nop
  402d70:	03e00008 	jr	ra
  402d74:	27bd0040 	addiu	sp,sp,64

00402d78 <showLED_fail>:
  402d78:	3c1c0005 	lui	gp,0x5
  402d7c:	279c8fc8 	addiu	gp,gp,-28728
  402d80:	0399e021 	addu	gp,gp,t9
  402d84:	27bdffc0 	addiu	sp,sp,-64
  402d88:	afbf0038 	sw	ra,56(sp)
  402d8c:	afbc0010 	sw	gp,16(sp)
  402d90:	8f84801c 	lw	a0,-32740(gp)
  402d94:	8f9980d4 	lw	t9,-32556(gp)
  402d98:	00000000 	nop
  402d9c:	0320f809 	jalr	t9
  402da0:	24843be0 	addiu	a0,a0,15328
  402da4:	8fbc0010 	lw	gp,16(sp)
  402da8:	00000000 	nop
  402dac:	8f9980f0 	lw	t9,-32528(gp)
  402db0:	00000000 	nop
  402db4:	0320f809 	jalr	t9
  402db8:	00000000 	nop
  402dbc:	8fbc0010 	lw	gp,16(sp)
  402dc0:	27a40018 	addiu	a0,sp,24
  402dc4:	8f85801c 	lw	a1,-32740(gp)
  402dc8:	8f99805c 	lw	t9,sprintf
  402dcc:	24a53bec 	addiu	a1,a1,15340
  402dd0:	0320f809 	jalr	t9
--
  402dec:	27a40018 	addiu	a0,sp,24
  402df0:	8fbc0010 	lw	gp,16(sp)
  402df4:	8fbf0038 	lw	ra,56(sp)
  402df8:	00000000 	nop
  402dfc:	03e00008 	jr	ra
  402e00:	27bd0040 	addiu	sp,sp,64

00402e04 <update_WiFiDomain>:
  402e04:	3c1c0005 	lui	gp,0x5
  402e08:	279c8f3c 	addiu	gp,gp,-28868
  402e0c:	0399e021 	addu	gp,gp,t9
  402e10:	27bdffa0 	addiu	sp,sp,-96
  402e14:	afbf005c 	sw	ra,92(sp)
  402e18:	afb00058 	sw	s0,88(sp)
  402e1c:	afbc0010 	sw	gp,16(sp)
  402e20:	00a08021 	move	s0,a1
  402e24:	00802821 	move	a1,a0
  402e28:	8f84801c 	lw	a0,-32740(gp)
  402e2c:	8f998110 	lw	t9,-32496(gp)
  402e30:	02003021 	move	a2,s0
  402e34:	0320f809 	jalr	t9
  402e38:	24843bf8 	addiu	a0,a0,15352
  402e3c:	8fbc0010 	lw	gp,16(sp)
  402e40:	02003021 	move	a2,s0
  402e44:	8f85801c 	lw	a1,-32740(gp)
  402e48:	8f99805c 	lw	t9,sprintf
  402e4c:	24a53c10 	addiu	a1,a1,15376
  402e50:	0320f809 	jalr	t9
--
  402eac:	03e00008 	jr	ra
  402eb0:	27bd0060 	addiu	sp,sp,96

00402eb4 <upgrade_firmware>:
  402eb4:	3c1c0005 	lui	gp,0x5
  402eb8:	279c8e8c 	addiu	gp,gp,-29044
  402ebc:	0399e021 	addu	gp,gp,t9
  402ec0:	27bdff88 	addiu	sp,sp,-120
  402ec4:	afbf0070 	sw	ra,112(sp)
  402ec8:	afb3006c 	sw	s3,108(sp)
  402ecc:	afb20068 	sw	s2,104(sp)
  402ed0:	afb10064 	sw	s1,100(sp)
  402ed4:	afb00060 	sw	s0,96(sp)
  402ed8:	afbc0018 	sw	gp,24(sp)
  402edc:	00809021 	move	s2,a0
  402ee0:	8f84801c 	lw	a0,-32740(gp)
  402ee4:	8f9980d4 	lw	t9,-32556(gp)
  402ee8:	24843c24 	addiu	a0,a0,15396
  402eec:	00a08021 	move	s0,a1
  402ef0:	00c08821 	move	s1,a2
  402ef4:	0320f809 	jalr	t9
  402ef8:	00e09821 	move	s3,a3
  402efc:	8fbc0018 	lw	gp,24(sp)
  402f00:	34028101 	li	v0,0x8101
  402f04:	8f85801c 	lw	a1,-32740(gp)
  402f08:	8f99805c 	lw	t9,sprintf
  402f0c:	24a53c38 	addiu	a1,a1,15416
  402f10:	02003021 	move	a2,s0
--
  402f7c:	8fb00060 	lw	s0,96(sp)
  402f80:	03e00008 	jr	ra
  402f84:	27bd0078 	addiu	sp,sp,120

00402f88 <showLED_finish>:
  402f88:	3c1c0005 	lui	gp,0x5
  402f8c:	279c8db8 	addiu	gp,gp,-29256
  402f90:	0399e021 	addu	gp,gp,t9
  402f94:	27bdffc0 	addiu	sp,sp,-64
  402f98:	afbf0038 	sw	ra,56(sp)
  402f9c:	afbc0010 	sw	gp,16(sp)
  402fa0:	8f84801c 	lw	a0,-32740(gp)
  402fa4:	8f9980d4 	lw	t9,-32556(gp)
  402fa8:	00000000 	nop
  402fac:	0320f809 	jalr	t9
  402fb0:	24843c70 	addiu	a0,a0,15472
  402fb4:	8fbc0010 	lw	gp,16(sp)
  402fb8:	00000000 	nop
  402fbc:	8f9980f0 	lw	t9,-32528(gp)
  402fc0:	00000000 	nop
  402fc4:	0320f809 	jalr	t9
  402fc8:	00000000 	nop
  402fcc:	8fbc0010 	lw	gp,16(sp)
  402fd0:	27a40018 	addiu	a0,sp,24
  402fd4:	8f85801c 	lw	a1,-32740(gp)
  402fd8:	8f99805c 	lw	t9,sprintf
  402fdc:	24a53c90 	addiu	a1,a1,15504
  402fe0:	0320f809 	jalr	t9
--
  403008:	00000000 	nop
  40300c:	03e00008 	jr	ra
  403010:	27bd0040 	addiu	sp,sp,64

00403014 <showLED_not_support>:
  403014:	3c1c0005 	lui	gp,0x5
  403018:	279c8d2c 	addiu	gp,gp,-29396
  40301c:	0399e021 	addu	gp,gp,t9
  403020:	27bdffc0 	addiu	sp,sp,-64
  403024:	afbf0038 	sw	ra,56(sp)
  403028:	afbc0010 	sw	gp,16(sp)
  40302c:	8f84801c 	lw	a0,-32740(gp)
  403030:	8f9980d4 	lw	t9,-32556(gp)
  403034:	00000000 	nop
  403038:	0320f809 	jalr	t9
  40303c:	24843c9c 	addiu	a0,a0,15516
  403040:	8fbc0010 	lw	gp,16(sp)
  403044:	00000000 	nop
  403048:	8f9980f0 	lw	t9,-32528(gp)
  40304c:	00000000 	nop
  403050:	0320f809 	jalr	t9
  403054:	00000000 	nop
  403058:	8fbc0010 	lw	gp,16(sp)
  40305c:	27a40018 	addiu	a0,sp,24
  403060:	8f85801c 	lw	a1,-32740(gp)
  403064:	8f99805c 	lw	t9,sprintf
  403068:	24a53cac 	addiu	a1,a1,15532
  40306c:	0320f809 	jalr	t9
--
  40308c:	8fbc0010 	lw	gp,16(sp)
  403090:	8fbf0038 	lw	ra,56(sp)
  403094:	00000000 	nop
  403098:	03e00008 	jr	ra
  40309c:	27bd0040 	addiu	sp,sp,64
  4030a0:	3c1c0005 	lui	gp,0x5
  4030a4:	279c8ca0 	addiu	gp,gp,-29536
  4030a8:	0399e021 	addu	gp,gp,t9
  4030ac:	27bdffc0 	addiu	sp,sp,-64
  4030b0:	afbf0038 	sw	ra,56(sp)
  4030b4:	afbc0010 	sw	gp,16(sp)
  4030b8:	8f84801c 	lw	a0,-32740(gp)
  4030bc:	8f9980d4 	lw	t9,-32556(gp)
  4030c0:	00000000 	nop
  4030c4:	0320f809 	jalr	t9
  4030c8:	24843cb8 	addiu	a0,a0,15544
  4030cc:	8fbc0010 	lw	gp,16(sp)
  4030d0:	00000000 	nop
  4030d4:	8f9980f0 	lw	t9,-32528(gp)
  4030d8:	00000000 	nop
  4030dc:	0320f809 	jalr	t9
  4030e0:	00000000 	nop
  4030e4:	8fbc0010 	lw	gp,16(sp)
  4030e8:	27a40018 	addiu	a0,sp,24
  4030ec:	8f85801c 	lw	a1,-32740(gp)
  4030f0:	8f99805c 	lw	t9,sprintf
  4030f4:	24a53cc4 	addiu	a1,a1,15556
  4030f8:	0320f809 	jalr	t9
[[0;32m+[0m][0;32m /home/test/Desktop/MIPS-dir810_FW202B01-03/sbin/bulkagent (-rwxr-xr-x test test) -[0m Vulnerable function: [0;36msprintf [0m/ [0;31mFunction count: 22 [0m
[0m
