  401330:	8c450004 	lw	a1,4(v0)
  401334:	bae30000 	swr	v1,0(s7)
  401338:	90430009 	lbu	v1,9(v0)
  40133c:	90420008 	lbu	v0,8(v0)
  401340:	aae50007 	swl	a1,7(s7)
  401344:	bae50004 	swr	a1,4(s7)
  401348:	27390dc0 	addiu	t9,t9,3520
  40134c:	a2e20008 	sb	v0,8(s7)
  401350:	0320f809 	jalr	t9
  401354:	a2e30009 	sb	v1,9(s7)
  401358:	8fbc0018 	lw	gp,24(sp)
  40135c:	10000065 	b	4014f4 <main+0x304>
  401360:	0002202b 	sltu	a0,zero,v0
  401364:	28820005 	slti	v0,a0,5
  401368:	10400052 	beqz	v0,4014b4 <main+0x2c4>
  40136c:	00000000 	nop
  401370:	10000048 	b	401494 <main+0x2a4>
  401374:	00000000 	nop
  401378:	24020053 	li	v0,83
  40137c:	10620013 	beq	v1,v0,4013cc <main+0x1dc>
  401380:	00000000 	nop
  401384:	8f9980d4 	lw	t9,-32556(gp)
  401388:	8f84801c 	lw	a0,-32740(gp)
  40138c:	03202821 	move	a1,t9
  401390:	8f9080c4 	lw	s0,-32572(gp)
  401394:	8f998110 	lw	t9,printf
  401398:	10c00007 	beqz	a2,4013b8 <main+0x1c8>
  40139c:	24843560 	addiu	a0,a0,13664
--
  401480:	0320f809 	jalr	t9
  401484:	00000000 	nop
  401488:	8fbc0018 	lw	gp,24(sp)
  40148c:	10000009 	b	4014b4 <main+0x2c4>
  401490:	00000000 	nop
  401494:	8f84801c 	lw	a0,-32740(gp)
  401498:	8f9980d4 	lw	t9,-32556(gp)
  40149c:	00000000 	nop
  4014a0:	0320f809 	jalr	t9
  4014a4:	2484356c 	addiu	a0,a0,13676
  4014a8:	8fbc0018 	lw	gp,24(sp)
  4014ac:	10000011 	b	4014f4 <main+0x304>
  4014b0:	00002021 	move	a0,zero
  4014b4:	8f86801c 	lw	a2,-32740(gp)
  4014b8:	8f99807c 	lw	t9,-32644(gp)
  4014bc:	24c635a4 	addiu	a2,a2,13732
  4014c0:	02602021 	move	a0,s3
  4014c4:	8f9080c4 	lw	s0,-32572(gp)
  4014c8:	0320f809 	jalr	t9
  4014cc:	02202821 	move	a1,s1
  4014d0:	8fbc0018 	lw	gp,24(sp)
  4014d4:	00401821 	move	v1,v0
  4014d8:	8f84801c 	lw	a0,-32740(gp)
  4014dc:	28460054 	slti	a2,v0,84
  4014e0:	2402ffff 	li	v0,-1
  4014e4:	8f998110 	lw	t9,printf
  4014e8:	1462ffa3 	bne	v1,v0,401378 <main+0x188>
  4014ec:	248435ac 	addiu	a0,a0,13740
  4014f0:	24040001 	li	a0,1
  4014f4:	10800517 	beqz	a0,402954 <main+0x1764>
  4014f8:	2403ffff 	li	v1,-1
  4014fc:	8f82801c 	lw	v0,-32740(gp)
  401500:	8f85801c 	lw	a1,-32740(gp)
  401504:	245035b4 	addiu	s0,v0,13748
  401508:	8f998080 	lw	t9,-32640(gp)
  40150c:	24a535c8 	addiu	a1,a1,13768
  401510:	0320f809 	jalr	t9
  401514:	02002021 	move	a0,s0
  401518:	8fbc0018 	lw	gp,24(sp)
  40151c:	10400007 	beqz	v0,40153c <main+0x34c>
  401520:	00000000 	nop
  401524:	8f99806c 	lw	t9,-32660(gp)
  401528:	00000000 	nop
  40152c:	0320f809 	jalr	t9
  401530:	00402021 	move	a0,v0
  401534:	10000006 	b	401550 <main+0x360>
  401538:	00000000 	nop
  40153c:	8f84801c 	lw	a0,-32740(gp)
  401540:	8f998110 	lw	t9,printf
  401544:	248435cc 	addiu	a0,a0,13772
  401548:	0320f809 	jalr	t9
--
  401650:	00000000 	nop
  401654:	0320f809 	jalr	t9
  401658:	27b00138 	addiu	s0,sp,312
  40165c:	8fbc0018 	lw	gp,24(sp)
  401660:	00403021 	move	a2,v0
  401664:	8f85801c 	lw	a1,-32740(gp)
  401668:	8f9980a0 	lw	t9,-32608(gp)
  40166c:	24a538fc 	addiu	a1,a1,14588
  401670:	0320f809 	jalr	t9
  401674:	02202021 	move	a0,s1
  401678:	8fbc0018 	lw	gp,24(sp)
  40167c:	00000000 	nop
  401680:	8f99806c 	lw	t9,-32660(gp)
  401684:	00000000 	nop
  401688:	0320f809 	jalr	t9
  40168c:	02202021 	move	a0,s1
  401690:	8fbc0018 	lw	gp,24(sp)
  401694:	00000000 	nop
  401698:	8f9980e0 	lw	t9,-32544(gp)
  40169c:	00000000 	nop
  4016a0:	0320f809 	jalr	t9
  4016a4:	00000000 	nop
  4016a8:	8fbc0018 	lw	gp,24(sp)
  4016ac:	27a50020 	addiu	a1,sp,32
  4016b0:	8f84801c 	lw	a0,-32740(gp)
  4016b4:	8f998110 	lw	t9,printf
  4016b8:	00000000 	nop
  4016bc:	0320f809 	jalr	t9
--
  401724:	a7a2013a 	sh	v0,314(sp)
  401728:	02002821 	move	a1,s0
  40172c:	0320f809 	jalr	t9
  401730:	24060010 	li	a2,16
  401734:	2403ffff 	li	v1,-1
  401738:	8fbc0018 	lw	gp,24(sp)
  40173c:	1443000b 	bne	v0,v1,40176c <main+0x57c>
  401740:	24040001 	li	a0,1
  401744:	8f84801c 	lw	a0,-32740(gp)
  401748:	8f9980dc 	lw	t9,-32548(gp)
  40174c:	00000000 	nop
  401750:	0320f809 	jalr	t9
  401754:	2484364c 	addiu	a0,a0,13900
  401758:	8fbc0018 	lw	gp,24(sp)
  40175c:	24030065 	li	v1,101
  401760:	8f828018 	lw	v0,-32744(gp)
  401764:	00002021 	move	a0,zero
  401768:	ac433e80 	sw	v1,16000(v0)
  40176c:	10800442 	beqz	a0,402878 <main+0x1688>
  401770:	00000000 	nop
  401774:	8e423e84 	lw	v0,16004(s2)
  401778:	00000000 	nop
  40177c:	1440000e 	bnez	v0,4017b8 <main+0x5c8>
  401780:	00000000 	nop
  401784:	8f84801c 	lw	a0,-32740(gp)
  401788:	8f998110 	lw	t9,printf
  40178c:	24843654 	addiu	a0,a0,13908
  401790:	0320f809 	jalr	t9
  401794:	24050001 	li	a1,1
  401798:	8fbc0018 	lw	gp,24(sp)
  40179c:	00000000 	nop
  4017a0:	8f9980c8 	lw	t9,-32568(gp)
  4017a4:	00000000 	nop
  4017a8:	0320f809 	jalr	t9
  4017ac:	24040001 	li	a0,1
  4017b0:	8fbc0018 	lw	gp,24(sp)
  4017b4:	00000000 	nop
  4017b8:	8f90801c 	lw	s0,-32740(gp)
  4017bc:	8f84801c 	lw	a0,-32740(gp)
  4017c0:	8f998110 	lw	t9,printf
  4017c4:	2484368c 	addiu	a0,a0,13964
  4017c8:	0320f809 	jalr	t9
  4017cc:	26053674 	addiu	a1,s0,13940
  4017d0:	8fbc0018 	lw	gp,24(sp)
  4017d4:	26043674 	addiu	a0,s0,13940
  4017d8:	8f85801c 	lw	a1,-32740(gp)
  4017dc:	8f998080 	lw	t9,-32640(gp)
  4017e0:	00000000 	nop
  4017e4:	0320f809 	jalr	t9
  4017e8:	24a53544 	addiu	a1,a1,13636
  4017ec:	8fbc0018 	lw	gp,24(sp)
  4017f0:	14400011 	bnez	v0,401838 <main+0x648>
  4017f4:	00409821 	move	s3,v0
  4017f8:	8f84801c 	lw	a0,-32740(gp)
  4017fc:	8f998110 	lw	t9,printf
  401800:	248436a8 	addiu	a0,a0,13992
  401804:	0320f809 	jalr	t9
  401808:	26053674 	addiu	a1,s0,13940
  40180c:	8fbc0018 	lw	gp,24(sp)
  401810:	10000409 	b	402838 <main+0x1648>
  401814:	24030066 	li	v1,102
  401818:	8f84801c 	lw	a0,-32740(gp)
  40181c:	8f998110 	lw	t9,printf
  401820:	ae823e80 	sw	v0,16000(s4)
  401824:	248436d0 	addiu	a0,a0,14032
--
  401afc:	00000000 	nop
  401b00:	0320f809 	jalr	t9
  401b04:	2484373c 	addiu	a0,a0,14140
  401b08:	8e250000 	lw	a1,0(s1)
  401b0c:	8fbc0018 	lw	gp,24(sp)
  401b10:	10b1003f 	beq	a1,s1,401c10 <main+0xa20>
  401b14:	24040001 	li	a0,1
  401b18:	1000000c 	b	401b4c <main+0x95c>
  401b1c:	00a08021 	move	s0,a1
  401b20:	8f84801c 	lw	a0,-32740(gp)
  401b24:	8f9980dc 	lw	t9,-32548(gp)
  401b28:	00000000 	nop
  401b2c:	0320f809 	jalr	t9
  401b30:	2484375c 	addiu	a0,a0,14172
  401b34:	8fbc0018 	lw	gp,24(sp)
  401b38:	24030068 	li	v1,104
  401b3c:	8f828018 	lw	v0,-32744(gp)
  401b40:	00002021 	move	a0,zero
  401b44:	10000032 	b	401c10 <main+0xa20>
  401b48:	ac433e80 	sw	v1,16000(v0)
  401b4c:	92050009 	lbu	a1,9(s0)
  401b50:	9206000b 	lbu	a2,11(s0)
  401b54:	9203000a 	lbu	v1,10(s0)
  401b58:	8f84801c 	lw	a0,-32740(gp)
  401b5c:	92020008 	lbu	v0,8(s0)
  401b60:	8f998110 	lw	t9,printf
  401b64:	00052a00 	sll	a1,a1,0x8
  401b68:	00063200 	sll	a2,a2,0x8
--
  401bb8:	00021202 	srl	v0,v0,0x8
  401bbc:	00431025 	or	v0,v0,v1
  401bc0:	00a42825 	or	a1,a1,a0
  401bc4:	00052202 	srl	a0,a1,0x8
  401bc8:	00021a02 	srl	v1,v0,0x8
  401bcc:	8f9980b0 	lw	t9,-32592(gp)
  401bd0:	a204000b 	sb	a0,11(s0)
  401bd4:	a205000a 	sb	a1,10(s0)
  401bd8:	a2030009 	sb	v1,9(s0)
  401bdc:	a2020008 	sb	v0,8(s0)
  401be0:	24c60004 	addiu	a2,a2,4
  401be4:	26050008 	addiu	a1,s0,8
  401be8:	03c02021 	move	a0,s8
  401bec:	0320f809 	jalr	t9
  401bf0:	00003821 	move	a3,zero
  401bf4:	8fbc0018 	lw	gp,24(sp)
  401bf8:	0440ffc9 	bltz	v0,401b20 <main+0x930>
  401bfc:	00000000 	nop
  401c00:	8e100000 	lw	s0,0(s0)
  401c04:	00000000 	nop
  401c08:	1611ffd0 	bne	s0,s1,401b4c <main+0x95c>
  401c0c:	24040001 	li	a0,1
  401c10:	10800319 	beqz	a0,402878 <main+0x1688>
  401c14:	00000000 	nop
  401c18:	8f84801c 	lw	a0,-32740(gp)
  401c1c:	8f998110 	lw	t9,printf
  401c20:	afbe0864 	sw	s8,2148(sp)
  401c24:	2484378c 	addiu	a0,a0,14220
--
  401d58:	0320f809 	jalr	t9
  401d5c:	00000000 	nop
  401d60:	8fbc0018 	lw	gp,24(sp)
  401d64:	10000060 	b	401ee8 <main+0xcf8>
  401d68:	00002021 	move	a0,zero
  401d6c:	8f9980fc 	lw	t9,-32516(gp)
  401d70:	27a40864 	addiu	a0,sp,2148
  401d74:	02402821 	move	a1,s2
  401d78:	0320f809 	jalr	t9
  401d7c:	2406000c 	li	a2,12
  401d80:	8fbc0018 	lw	gp,24(sp)
  401d84:	0441000c 	bgez	v0,401db8 <main+0xbc8>
  401d88:	00000000 	nop
  401d8c:	8f84801c 	lw	a0,-32740(gp)
  401d90:	8f9980dc 	lw	t9,-32548(gp)
  401d94:	00000000 	nop
  401d98:	0320f809 	jalr	t9
  401d9c:	24843510 	addiu	a0,a0,13584
  401da0:	8fbc0018 	lw	gp,24(sp)
  401da4:	2403006a 	li	v1,106
  401da8:	8f828018 	lw	v0,-32744(gp)
  401dac:	00002021 	move	a0,zero
  401db0:	1000004d 	b	401ee8 <main+0xcf8>
  401db4:	ac433e80 	sw	v1,16000(v0)
  401db8:	8f84801c 	lw	a0,-32740(gp)
  401dbc:	8f998110 	lw	t9,printf
  401dc0:	24843810 	addiu	a0,a0,14352
  401dc4:	0320f809 	jalr	t9
  401dc8:	00402821 	move	a1,v0
  401dcc:	8fbc0018 	lw	gp,24(sp)
  401dd0:	92450003 	lbu	a1,3(s2)
  401dd4:	8f84801c 	lw	a0,-32740(gp)
  401dd8:	8f998110 	lw	t9,printf
  401ddc:	00000000 	nop
  401de0:	0320f809 	jalr	t9
  401de4:	24843824 	addiu	a0,a0,14372
  401de8:	92420001 	lbu	v0,1(s2)
  401dec:	92430000 	lbu	v1,0(s2)
  401df0:	92450002 	lbu	a1,2(s2)
  401df4:	00021200 	sll	v0,v0,0x8
  401df8:	00431025 	or	v0,v0,v1
  401dfc:	00052c00 	sll	a1,a1,0x10
  401e00:	8fbc0018 	lw	gp,24(sp)
  401e04:	00a22825 	or	a1,a1,v0
  401e08:	3c1000ff 	lui	s0,0xff
  401e0c:	00b01824 	and	v1,a1,s0
  401e10:	30a2ff00 	andi	v0,a1,0xff00
  401e14:	8f84801c 	lw	a0,-32740(gp)
  401e18:	00021200 	sll	v0,v0,0x8
  401e1c:	00031a02 	srl	v1,v1,0x8
  401e20:	8f998110 	lw	t9,printf
  401e24:	00621825 	or	v1,v1,v0
  401e28:	00052e00 	sll	a1,a1,0x18
  401e2c:	00652825 	or	a1,v1,a1
  401e30:	0320f809 	jalr	t9
  401e34:	24843838 	addiu	a0,a0,14392
  401e38:	92450005 	lbu	a1,5(s2)
  401e3c:	92420004 	lbu	v0,4(s2)
  401e40:	8fbc0018 	lw	gp,24(sp)
  401e44:	00052a00 	sll	a1,a1,0x8
  401e48:	00a22825 	or	a1,a1,v0
  401e4c:	8f84801c 	lw	a0,-32740(gp)
  401e50:	30a200ff 	andi	v0,a1,0xff
  401e54:	8f998110 	lw	t9,printf
  401e58:	00021200 	sll	v0,v0,0x8
  401e5c:	00052a02 	srl	a1,a1,0x8
  401e60:	00a22825 	or	a1,a1,v0
  401e64:	0320f809 	jalr	t9
  401e68:	24843850 	addiu	a0,a0,14416
  401e6c:	92450007 	lbu	a1,7(s2)
  401e70:	92420006 	lbu	v0,6(s2)
  401e74:	8fbc0018 	lw	gp,24(sp)
  401e78:	00052a00 	sll	a1,a1,0x8
  401e7c:	00a22825 	or	a1,a1,v0
  401e80:	8f84801c 	lw	a0,-32740(gp)
  401e84:	30a200ff 	andi	v0,a1,0xff
  401e88:	8f998110 	lw	t9,printf
  401e8c:	00021200 	sll	v0,v0,0x8
  401e90:	00052a02 	srl	a1,a1,0x8
  401e94:	00a22825 	or	a1,a1,v0
  401e98:	0320f809 	jalr	t9
  401e9c:	24843864 	addiu	a0,a0,14436
  401ea0:	8a45000b 	lwl	a1,11(s2)
  401ea4:	8fbc0018 	lw	gp,24(sp)
  401ea8:	9a450008 	lwr	a1,8(s2)
  401eac:	8f84801c 	lw	a0,-32740(gp)
  401eb0:	00b08024 	and	s0,a1,s0
  401eb4:	00051e02 	srl	v1,a1,0x18
  401eb8:	30a2ff00 	andi	v0,a1,0xff00
  401ebc:	00108202 	srl	s0,s0,0x8
  401ec0:	00021200 	sll	v0,v0,0x8
  401ec4:	00701825 	or	v1,v1,s0
  401ec8:	8f998110 	lw	t9,printf
  401ecc:	00621825 	or	v1,v1,v0
  401ed0:	00052e00 	sll	a1,a1,0x18
--
  40200c:	1040002e 	beqz	v0,4020c8 <main+0xed8>
  402010:	3c02ffff 	lui	v0,0xffff
  402014:	34427ff9 	ori	v0,v0,0x7ff9
  402018:	00621021 	addu	v0,v1,v0
  40201c:	2c420007 	sltiu	v0,v0,7
  402020:	1040ffe1 	beqz	v0,401fa8 <main+0xdb8>
  402024:	00000000 	nop
  402028:	10000027 	b	4020c8 <main+0xed8>
  40202c:	00000000 	nop
  402030:	34028107 	li	v0,0x8107
  402034:	10620009 	beq	v1,v0,40205c <main+0xe6c>
  402038:	0062102a 	slt	v0,v1,v0
  40203c:	1440000b 	bnez	v0,40206c <main+0xe7c>
  402040:	34028108 	li	v0,0x8108
  402044:	10620032 	beq	v1,v0,402110 <main+0xf20>
  402048:	34028901 	li	v0,0x8901
  40204c:	1062001e 	beq	v1,v0,4020c8 <main+0xed8>
  402050:	00000000 	nop
  402054:	1000ffd4 	b	401fa8 <main+0xdb8>
  402058:	00000000 	nop
  40205c:	8f828018 	lw	v0,-32744(gp)
  402060:	24030001 	li	v1,1
  402064:	1000010b 	b	402494 <main+0x12a4>
  402068:	ac433e80 	sw	v1,16000(v0)
  40206c:	8f84801c 	lw	a0,-32740(gp)
  402070:	8f998110 	lw	t9,printf
  402074:	00e03021 	move	a2,a3
  402078:	248438e0 	addiu	a0,a0,14560
  40207c:	0320f809 	jalr	t9
  402080:	02802821 	move	a1,s4
  402084:	8fbc0018 	lw	gp,24(sp)
  402088:	97a502f8 	lhu	a1,760(sp)
  40208c:	8f84801c 	lw	a0,-32740(gp)
  402090:	8f998110 	lw	t9,printf
  402094:	97a602fa 	lhu	a2,762(sp)
  402098:	0320f809 	jalr	t9
  40209c:	24843900 	addiu	a0,a0,14592
  4020a0:	8fbc0018 	lw	gp,24(sp)
  4020a4:	00000000 	nop
  4020a8:	8f84801c 	lw	a0,-32740(gp)
  4020ac:	8f9980d4 	lw	t9,-32556(gp)
  4020b0:	00000000 	nop
  4020b4:	0320f809 	jalr	t9
  4020b8:	24843920 	addiu	a0,a0,14624
  4020bc:	8fbc0018 	lw	gp,24(sp)
  4020c0:	100000f4 	b	402494 <main+0x12a4>
  4020c4:	00000000 	nop
  4020c8:	8f84801c 	lw	a0,-32740(gp)
  4020cc:	8f998110 	lw	t9,printf
  4020d0:	00e03021 	move	a2,a3
  4020d4:	248438e0 	addiu	a0,a0,14560
  4020d8:	0320f809 	jalr	t9
  4020dc:	02802821 	move	a1,s4
  4020e0:	8fbc0018 	lw	gp,24(sp)
  4020e4:	97a502f8 	lhu	a1,760(sp)
  4020e8:	8f84801c 	lw	a0,-32740(gp)
  4020ec:	8f998110 	lw	t9,printf
  4020f0:	97a602fa 	lhu	a2,762(sp)
  4020f4:	0320f809 	jalr	t9
  4020f8:	24843900 	addiu	a0,a0,14592
  4020fc:	8fbc0018 	lw	gp,24(sp)
  402100:	02002021 	move	a0,s0
  402104:	8f868108 	lw	a2,-32504(gp)
  402108:	1000001a 	b	402174 <main+0xf84>
  40210c:	02202821 	move	a1,s1
  402110:	8f84801c 	lw	a0,-32740(gp)
  402114:	8f998110 	lw	t9,printf
  402118:	00e03021 	move	a2,a3
  40211c:	248438e0 	addiu	a0,a0,14560
  402120:	0320f809 	jalr	t9
  402124:	02802821 	move	a1,s4
  402128:	8fbc0018 	lw	gp,24(sp)
  40212c:	97a502f8 	lhu	a1,760(sp)
  402130:	8f84801c 	lw	a0,-32740(gp)
  402134:	8f998110 	lw	t9,printf
  402138:	97a602fa 	lhu	a2,762(sp)
  40213c:	0320f809 	jalr	t9
--
  402144:	8fbc0018 	lw	gp,24(sp)
  402148:	02202021 	move	a0,s1
  40214c:	8f85801c 	lw	a1,-32740(gp)
  402150:	8f998068 	lw	t9,-32664(gp)
  402154:	00000000 	nop
  402158:	0320f809 	jalr	t9
  40215c:	24a53930 	addiu	a1,a1,14640
  402160:	8fbc0018 	lw	gp,24(sp)
  402164:	1440ff90 	bnez	v0,401fa8 <main+0xdb8>
  402168:	02002021 	move	a0,s0
  40216c:	8f868108 	lw	a2,-32504(gp)
  402170:	02202821 	move	a1,s1
  402174:	8f99801c 	lw	t9,-32740(gp)
  402178:	00000000 	nop
  40217c:	2739102c 	addiu	t9,t9,4140
  402180:	0320f809 	jalr	t9
  402184:	00000000 	nop
  402188:	8fbc0018 	lw	gp,24(sp)
  40218c:	1440ff86 	bnez	v0,401fa8 <main+0xdb8>
  402190:	00000000 	nop
  402194:	100000bf 	b	402494 <main+0x12a4>
  402198:	00000000 	nop
  40219c:	8a240047 	lwl	a0,71(s1)
  4021a0:	3c0600ff 	lui	a2,0xff
  4021a4:	9a240044 	lwr	a0,68(s1)
  4021a8:	8f998110 	lw	t9,printf
  4021ac:	00862824 	and	a1,a0,a2
  4021b0:	00052a02 	srl	a1,a1,0x8
--
  4021c8:	00042600 	sll	a0,a0,0x18
  4021cc:	00441025 	or	v0,v0,a0
  4021d0:	aa220047 	swl	v0,71(s1)
  4021d4:	ba220044 	swr	v0,68(s1)
  4021d8:	8a250043 	lwl	a1,67(s1)
  4021dc:	8f84801c 	lw	a0,-32740(gp)
  4021e0:	9a250040 	lwr	a1,64(s1)
  4021e4:	248438e0 	addiu	a0,a0,14560
  4021e8:	00a63024 	and	a2,a1,a2
  4021ec:	00063202 	srl	a2,a2,0x8
  4021f0:	00051602 	srl	v0,a1,0x18
  4021f4:	30a3ff00 	andi	v1,a1,0xff00
  4021f8:	00031a00 	sll	v1,v1,0x8
  4021fc:	00461025 	or	v0,v0,a2
  402200:	00431025 	or	v0,v0,v1
  402204:	00052e00 	sll	a1,a1,0x18
  402208:	00451025 	or	v0,v0,a1
  40220c:	aa220043 	swl	v0,67(s1)
  402210:	00e03021 	move	a2,a3
  402214:	02802821 	move	a1,s4
  402218:	0320f809 	jalr	t9
  40221c:	ba220040 	swr	v0,64(s1)
  402220:	8fbc0018 	lw	gp,24(sp)
  402224:	97a502f8 	lhu	a1,760(sp)
  402228:	8f84801c 	lw	a0,-32740(gp)
  40222c:	8f998110 	lw	t9,printf
  402230:	97a602fa 	lhu	a2,762(sp)
  402234:	0320f809 	jalr	t9
  402238:	24843900 	addiu	a0,a0,14592
  40223c:	8fbc0018 	lw	gp,24(sp)
  402240:	8a260043 	lwl	a2,67(s1)
  402244:	8a270047 	lwl	a3,71(s1)
  402248:	8f84801c 	lw	a0,-32740(gp)
  40224c:	8f998110 	lw	t9,printf
  402250:	9a260040 	lwr	a2,64(s1)
  402254:	9a270044 	lwr	a3,68(s1)
--
  402410:	8f99806c 	lw	t9,-32660(gp)
  402414:	00000000 	nop
  402418:	0320f809 	jalr	t9
  40241c:	afa00874 	sw	zero,2164(sp)
  402420:	8fbc0018 	lw	gp,24(sp)
  402424:	2403006a 	li	v1,106
  402428:	8f828018 	lw	v0,-32744(gp)
  40242c:	10000007 	b	40244c <main+0x125c>
  402430:	ac433e80 	sw	v1,16000(v0)
  402434:	8f84801c 	lw	a0,-32740(gp)
  402438:	24060001 	li	a2,1
  40243c:	afa60874 	sw	a2,2164(sp)
  402440:	0320f809 	jalr	t9
  402444:	24843980 	addiu	a0,a0,14720
  402448:	8fbc0018 	lw	gp,24(sp)
  40244c:	8fa90874 	lw	t1,2164(sp)
  402450:	00000000 	nop
  402454:	312200ff 	andi	v0,t1,0xff
  402458:	1040000e 	beqz	v0,402494 <main+0x12a4>
  40245c:	00000000 	nop
  402460:	8a220043 	lwl	v0,67(s1)
  402464:	8a260043 	lwl	a2,67(s1)
  402468:	9a220040 	lwr	v0,64(s1)
  40246c:	8f84801c 	lw	a0,-32740(gp)
  402470:	0282a023 	subu	s4,s4,v0
  402474:	8f998110 	lw	t9,printf
  402478:	9a260040 	lwr	a2,64(s1)
  40247c:	2484398c 	addiu	a0,a0,14732
--
  4025fc:	00822025 	or	a0,a0,v0
  402600:	8f998070 	lw	t9,-32656(gp)
  402604:	34048004 	li	a0,0x8004
  402608:	0320f809 	jalr	t9
  40260c:	2625000c 	addiu	a1,s1,12
  402610:	8fbc0018 	lw	gp,24(sp)
  402614:	10000017 	b	402674 <main+0x1484>
  402618:	00409021 	move	s2,v0
  40261c:	8f998058 	lw	t9,-32680(gp)
  402620:	34048102 	li	a0,0x8102
  402624:	02e02821 	move	a1,s7
  402628:	0320f809 	jalr	t9
  40262c:	27a70840 	addiu	a3,sp,2112
  402630:	8fbc0018 	lw	gp,24(sp)
  402634:	00409021 	move	s2,v0
  402638:	10000023 	b	4026c8 <main+0x14d8>
  40263c:	24100001 	li	s0,1
  402640:	8f998118 	lw	t9,-32488(gp)
  402644:	27b00840 	addiu	s0,sp,2112
  402648:	02002021 	move	a0,s0
  40264c:	0320f809 	jalr	t9
  402650:	2625000c 	addiu	a1,s1,12
  402654:	8fbc0018 	lw	gp,24(sp)
  402658:	02002821 	move	a1,s0
  40265c:	8f84801c 	lw	a0,-32740(gp)
  402660:	8f998110 	lw	t9,printf
  402664:	00000000 	nop
  402668:	0320f809 	jalr	t9
--
  4026c4:	00409021 	move	s2,v0
  4026c8:	24130008 	li	s3,8
  4026cc:	12400007 	beqz	s2,4026ec <main+0x14fc>
  4026d0:	00000000 	nop
  4026d4:	8f828018 	lw	v0,-32744(gp)
  4026d8:	00000000 	nop
  4026dc:	8c423e84 	lw	v0,16004(v0)
  4026e0:	00000000 	nop
  4026e4:	1040fc4c 	beqz	v0,401818 <main+0x628>
  4026e8:	2402006f 	li	v0,111
  4026ec:	8e310000 	lw	s1,0(s1)
  4026f0:	00000000 	nop
  4026f4:	1635ff8d 	bne	s1,s5,40252c <main+0x133c>
  4026f8:	00000000 	nop
  4026fc:	1200005e 	beqz	s0,402878 <main+0x1688>
  402700:	00000000 	nop
  402704:	8f828018 	lw	v0,-32744(gp)
  402708:	00000000 	nop
  40270c:	8c423e84 	lw	v0,16004(v0)
  402710:	00000000 	nop
  402714:	14400058 	bnez	v0,402878 <main+0x1688>
  402718:	00000000 	nop
  40271c:	1a60000e 	blez	s3,402758 <main+0x1568>
  402720:	00000000 	nop
  402724:	8f84801c 	lw	a0,-32740(gp)
  402728:	8f998110 	lw	t9,printf
  40272c:	24843a10 	addiu	a0,a0,14864
  402730:	0320f809 	jalr	t9
--
  40285c:	1000fff6 	b	402838 <main+0x1648>
  402860:	2403006b 	li	v1,107
  402864:	8fa20870 	lw	v0,2160(sp)
  402868:	00000000 	nop
  40286c:	2442ffff 	addiu	v0,v0,-1
  402870:	1c40fc65 	bgtz	v0,401a08 <main+0x818>
  402874:	afa20870 	sw	v0,2160(sp)
  402878:	8f848018 	lw	a0,-32744(gp)
  40287c:	24020002 	li	v0,2
  402880:	8c833e80 	lw	v1,16000(a0)
  402884:	8f998100 	lw	t9,-32512(gp)
  402888:	10620015 	beq	v1,v0,4028e0 <main+0x16f0>
  40288c:	28620003 	slti	v0,v1,3
  402890:	10400006 	beqz	v0,4028ac <main+0x16bc>
  402894:	24020004 	li	v0,4
  402898:	8f9980a4 	lw	t9,-32604(gp)
  40289c:	10600010 	beqz	v1,4028e0 <main+0x16f0>
  4028a0:	00000000 	nop
  4028a4:	10000004 	b	4028b8 <main+0x16c8>
  4028a8:	00000000 	nop
  4028ac:	8f9980d8 	lw	t9,-32552(gp)
  4028b0:	1062000b 	beq	v1,v0,4028e0 <main+0x16f0>
  4028b4:	00000000 	nop
  4028b8:	8c853e80 	lw	a1,16000(a0)
  4028bc:	8f84801c 	lw	a0,-32740(gp)
  4028c0:	8f998110 	lw	t9,printf
  4028c4:	00000000 	nop
  4028c8:	0320f809 	jalr	t9
--
  402b84:	8f85801c 	lw	a1,-32740(gp)
  402b88:	8f99805c 	lw	t9,-32676(gp)
  402b8c:	24a53adc 	addiu	a1,a1,15068
  402b90:	02003021 	move	a2,s0
  402b94:	27a40020 	addiu	a0,sp,32
  402b98:	0320f809 	jalr	t9
  402b9c:	00000000 	nop
  402ba0:	10000046 	b	402cbc <update_HWinfo+0x208>
  402ba4:	00000000 	nop
  402ba8:	00003021 	move	a2,zero
  402bac:	2409003a 	li	t1,58
  402bb0:	27a80020 	addiu	t0,sp,32
  402bb4:	24070011 	li	a3,17
  402bb8:	90a40000 	lbu	a0,0(a1)
  402bbc:	00c81821 	addu	v1,a2,t0
  402bc0:	00041600 	sll	v0,a0,0x18
  402bc4:	00021603 	sra	v0,v0,0x18
  402bc8:	10490003 	beq	v0,t1,402bd8 <update_HWinfo+0x124>
  402bcc:	24a50001 	addiu	a1,a1,1
  402bd0:	a0640040 	sb	a0,64(v1)
  402bd4:	24c60001 	addiu	a2,a2,1
  402bd8:	14c7fff7 	bne	a2,a3,402bb8 <update_HWinfo+0x104>
  402bdc:	27b00020 	addiu	s0,sp,32
  402be0:	8f84801c 	lw	a0,-32740(gp)
  402be4:	02061021 	addu	v0,s0,a2
  402be8:	8f998110 	lw	t9,printf
  402bec:	27b10060 	addiu	s1,sp,96
  402bf0:	24843af8 	addiu	a0,a0,15096
--
  402dd0:	0320f809 	jalr	t9
  402dd4:	00403021 	move	a2,v0
  402dd8:	8fbc0010 	lw	gp,16(sp)
  402ddc:	00000000 	nop
  402de0:	8f9980d0 	lw	t9,-32560(gp)
  402de4:	00000000 	nop
  402de8:	0320f809 	jalr	t9
  402dec:	27a40018 	addiu	a0,sp,24
  402df0:	8fbc0010 	lw	gp,16(sp)
  402df4:	8fbf0038 	lw	ra,56(sp)
  402df8:	00000000 	nop
  402dfc:	03e00008 	jr	ra
  402e00:	27bd0040 	addiu	sp,sp,64

00402e04 <update_WiFiDomain>:
  402e04:	3c1c0005 	lui	gp,0x5
  402e08:	279c8f3c 	addiu	gp,gp,-28868
  402e0c:	0399e021 	addu	gp,gp,t9
  402e10:	27bdffa0 	addiu	sp,sp,-96
  402e14:	afbf005c 	sw	ra,92(sp)
  402e18:	afb00058 	sw	s0,88(sp)
  402e1c:	afbc0010 	sw	gp,16(sp)
  402e20:	00a08021 	move	s0,a1
  402e24:	00802821 	move	a1,a0
  402e28:	8f84801c 	lw	a0,-32740(gp)
  402e2c:	8f998110 	lw	t9,printf
  402e30:	02003021 	move	a2,s0
  402e34:	0320f809 	jalr	t9
[[0;32m+[0m][0;32m /home/test/Desktop/MIPS-dir810_FW202B01-03/sbin/bulkagent (-rwxr-xr-x test test) -[0m Vulnerable function: [0;36mprintf [0m/ [0;31mFunction count: 31 [0m
[0m
