  400928:	0320f809 	jalr	t9
  40092c:	24a51030 	addiu	a1,a1,4144
  400930:	8fbc0018 	lw	gp,24(sp)
  400934:	1440000c 	bnez	v0,400968 <main+0x128>
  400938:	00408821 	move	s1,v0
  40093c:	8f84801c 	lw	a0,-32740(gp)
  400940:	8f99806c 	lw	t9,-32660(gp)
  400944:	00000000 	nop
  400948:	0320f809 	jalr	t9
  40094c:	24841034 	addiu	a0,a0,4148
  400950:	8fbc0018 	lw	gp,24(sp)
  400954:	00000000 	nop
  400958:	8f998038 	lw	t9,-32712(gp)
  40095c:	00000000 	nop
  400960:	0320f809 	jalr	t9
  400964:	00002021 	move	a0,zero
  400968:	16600004 	bnez	s3,40097c <main+0x13c>
  40096c:	00000000 	nop
  400970:	8f82801c 	lw	v0,-32740(gp)
  400974:	10000004 	b	400988 <main+0x148>
  400978:	24451050 	addiu	a1,v0,4176
  40097c:	8f82801c 	lw	v0,-32740(gp)
  400980:	00000000 	nop
  400984:	24451054 	addiu	a1,v0,4180
  400988:	8f84801c 	lw	a0,-32740(gp)
  40098c:	8f998074 	lw	t9,printf
  400990:	00000000 	nop
  400994:	0320f809 	jalr	t9
  400998:	24841058 	addiu	a0,a0,4184
  40099c:	8fbc0018 	lw	gp,24(sp)
  4009a0:	00000000 	nop
  4009a4:	8f84801c 	lw	a0,-32740(gp)
  4009a8:	8f998068 	lw	t9,-32664(gp)
  4009ac:	10000064 	b	400b40 <main+0x300>
  4009b0:	248410d0 	addiu	a0,a0,4304
  4009b4:	8f84801c 	lw	a0,-32740(gp)
  4009b8:	03b01021 	addu	v0,sp,s0
  4009bc:	8f998074 	lw	t9,printf
  4009c0:	90450020 	lbu	a1,32(v0)
  4009c4:	0320f809 	jalr	t9
  4009c8:	24841154 	addiu	a0,a0,4436
  4009cc:	8fbc0018 	lw	gp,24(sp)
  4009d0:	24020005 	li	v0,5
  4009d4:	8f998078 	lw	t9,-32648(gp)
  4009d8:	12020004 	beq	s0,v0,4009ec <main+0x1ac>
  4009dc:	2404003a 	li	a0,58
  4009e0:	0320f809 	jalr	t9
  4009e4:	00000000 	nop
  4009e8:	8fbc0018 	lw	gp,24(sp)
  4009ec:	26100001 	addiu	s0,s0,1
  4009f0:	2a020006 	slti	v0,s0,6
  4009f4:	1440ffef 	bnez	v0,4009b4 <main+0x174>
  4009f8:	00000000 	nop
  4009fc:	8f998040 	lw	t9,-32704(gp)
  400a00:	8fa40030 	lw	a0,48(sp)
  400a04:	0320f809 	jalr	t9
  400a08:	00000000 	nop
  400a0c:	8fbc0018 	lw	gp,24(sp)
  400a10:	00402821 	move	a1,v0
  400a14:	8f84801c 	lw	a0,-32740(gp)
  400a18:	8f998074 	lw	t9,printf
  400a1c:	00000000 	nop
  400a20:	0320f809 	jalr	t9
  400a24:	2484115c 	addiu	a0,a0,4444
  400a28:	8fa50034 	lw	a1,52(sp)
  400a2c:	8fbc0018 	lw	gp,24(sp)
  400a30:	00052202 	srl	a0,a1,0x8
  400a34:	3084ff00 	andi	a0,a0,0xff00
  400a38:	00051602 	srl	v0,a1,0x18
  400a3c:	30a3ff00 	andi	v1,a1,0xff00
  400a40:	00031a00 	sll	v1,v1,0x8
  400a44:	00441025 	or	v0,v0,a0
  400a48:	00431025 	or	v0,v0,v1
  400a4c:	00052e00 	sll	a1,a1,0x18
  400a50:	8f998078 	lw	t9,-32648(gp)
  400a54:	00451025 	or	v0,v0,a1
  400a58:	24040020 	li	a0,32
  400a5c:	0320f809 	jalr	t9
  400a60:	afa20084 	sw	v0,132(sp)
  400a64:	8fbc0018 	lw	gp,24(sp)
  400a68:	27a50038 	addiu	a1,sp,56
  400a6c:	8f84801c 	lw	a0,-32740(gp)
  400a70:	8f998074 	lw	t9,printf
  400a74:	00000000 	nop
  400a78:	0320f809 	jalr	t9
  400a7c:	24841164 	addiu	a0,a0,4452
  400a80:	8fa30078 	lw	v1,120(sp)
  400a84:	24020001 	li	v0,1
  400a88:	8fbc0018 	lw	gp,24(sp)
  400a8c:	1062000f 	beq	v1,v0,400acc <main+0x28c>
  400a90:	00000000 	nop
  400a94:	10600007 	beqz	v1,400ab4 <main+0x274>
  400a98:	24020002 	li	v0,2
  400a9c:	10620011 	beq	v1,v0,400ae4 <main+0x2a4>
  400aa0:	24020003 	li	v0,3
  400aa4:	10620015 	beq	v1,v0,400afc <main+0x2bc>
  400aa8:	00000000 	nop
  400aac:	1000001b 	b	400b1c <main+0x2dc>
  400ab0:	00000000 	nop
  400ab4:	8f84801c 	lw	a0,-32740(gp)
  400ab8:	8f85801c 	lw	a1,-32740(gp)
  400abc:	8f998074 	lw	t9,printf
  400ac0:	2484116c 	addiu	a0,a0,4460
  400ac4:	10000012 	b	400b10 <main+0x2d0>
  400ac8:	24a51174 	addiu	a1,a1,4468
  400acc:	8f84801c 	lw	a0,-32740(gp)
  400ad0:	8f85801c 	lw	a1,-32740(gp)
  400ad4:	8f998074 	lw	t9,printf
  400ad8:	2484116c 	addiu	a0,a0,4460
  400adc:	1000000c 	b	400b10 <main+0x2d0>
  400ae0:	24a5117c 	addiu	a1,a1,4476
  400ae4:	8f84801c 	lw	a0,-32740(gp)
  400ae8:	8f85801c 	lw	a1,-32740(gp)
  400aec:	8f998074 	lw	t9,printf
  400af0:	2484116c 	addiu	a0,a0,4460
  400af4:	10000006 	b	400b10 <main+0x2d0>
  400af8:	24a51184 	addiu	a1,a1,4484
  400afc:	8f84801c 	lw	a0,-32740(gp)
  400b00:	8f85801c 	lw	a1,-32740(gp)
  400b04:	8f998074 	lw	t9,printf
  400b08:	2484116c 	addiu	a0,a0,4460
  400b0c:	24a51190 	addiu	a1,a1,4496
  400b10:	0320f809 	jalr	t9
  400b14:	00000000 	nop
  400b18:	8fbc0018 	lw	gp,24(sp)
  400b1c:	1660006e 	bnez	s3,400cd8 <main+0x498>
  400b20:	00000000 	nop
  400b24:	8fa30084 	lw	v1,132(sp)
  400b28:	00000000 	nop
  400b2c:	14600008 	bnez	v1,400b50 <main+0x310>
  400b30:	3c020001 	lui	v0,0x1
  400b34:	8f84801c 	lw	a0,-32740(gp)
  400b38:	8f998068 	lw	t9,-32664(gp)
  400b3c:	24841198 	addiu	a0,a0,4504
  400b40:	0320f809 	jalr	t9
  400b44:	00000000 	nop
  400b48:	1000006e 	b	400d04 <main+0x4c4>
  400b4c:	00000000 	nop
  400b50:	34425180 	ori	v0,v0,0x5180
  400b54:	0043102a 	slt	v0,v0,v1
  400b58:	1040001d 	beqz	v0,400bd0 <main+0x390>
  400b5c:	3c10c22e 	lui	s0,0xc22e
  400b60:	36104507 	ori	s0,s0,0x4507
  400b64:	00700018 	mult	v1,s0
  400b68:	8f84801c 	lw	a0,-32740(gp)
  400b6c:	000317c3 	sra	v0,v1,0x1f
  400b70:	8f998074 	lw	t9,printf
  400b74:	248411a0 	addiu	a0,a0,4512
  400b78:	00002810 	mfhi	a1
--
  400b94:	00900018 	mult	a0,s0
  400b98:	000417c3 	sra	v0,a0,0x1f
  400b9c:	00008010 	mfhi	s0
  400ba0:	02048021 	addu	s0,s0,a0
  400ba4:	00108403 	sra	s0,s0,0x10
  400ba8:	02028023 	subu	s0,s0,v0
  400bac:	00101040 	sll	v0,s0,0x1
  400bb0:	00501021 	addu	v0,v0,s0
  400bb4:	00021900 	sll	v1,v0,0x4
  400bb8:	00621823 	subu	v1,v1,v0
  400bbc:	00031100 	sll	v0,v1,0x4
  400bc0:	00431023 	subu	v0,v0,v1
  400bc4:	000211c0 	sll	v0,v0,0x7
  400bc8:	00822023 	subu	a0,a0,v0
  400bcc:	afa40084 	sw	a0,132(sp)
  400bd0:	8fa30084 	lw	v1,132(sp)
  400bd4:	00000000 	nop
  400bd8:	28620e11 	slti	v0,v1,3601
  400bdc:	1440001f 	bnez	v0,400c5c <main+0x41c>
  400be0:	2862003d 	slti	v0,v1,61
  400be4:	3c1091a2 	lui	s0,0x91a2
  400be8:	3610b3c5 	ori	s0,s0,0xb3c5
  400bec:	00700018 	mult	v1,s0
  400bf0:	8f84801c 	lw	a0,-32740(gp)
  400bf4:	000317c3 	sra	v0,v1,0x1f
  400bf8:	8f998074 	lw	t9,printf
  400bfc:	248411ac 	addiu	a0,a0,4524
  400c00:	00002810 	mfhi	a1
--
  400c10:	00a22823 	subu	a1,a1,v0
  400c14:	8fa30084 	lw	v1,132(sp)
  400c18:	8fbc0018 	lw	gp,24(sp)
  400c1c:	00700018 	mult	v1,s0
  400c20:	000317c3 	sra	v0,v1,0x1f
  400c24:	00008010 	mfhi	s0
  400c28:	02038021 	addu	s0,s0,v1
  400c2c:	001082c3 	sra	s0,s0,0xb
  400c30:	02028023 	subu	s0,s0,v0
  400c34:	001010c0 	sll	v0,s0,0x3
  400c38:	00501023 	subu	v0,v0,s0
  400c3c:	00021140 	sll	v0,v0,0x5
  400c40:	00501021 	addu	v0,v0,s0
  400c44:	00021100 	sll	v0,v0,0x4
  400c48:	00621823 	subu	v1,v1,v0
  400c4c:	afa30084 	sw	v1,132(sp)
  400c50:	8fa30084 	lw	v1,132(sp)
  400c54:	00000000 	nop
  400c58:	2862003d 	slti	v0,v1,61
  400c5c:	14400019 	bnez	v0,400cc4 <main+0x484>
  400c60:	3c108888 	lui	s0,0x8888
  400c64:	36108889 	ori	s0,s0,0x8889
  400c68:	00700018 	mult	v1,s0
  400c6c:	8f84801c 	lw	a0,-32740(gp)
  400c70:	000317c3 	sra	v0,v1,0x1f
  400c74:	8f998074 	lw	t9,printf
  400c78:	248411b8 	addiu	a0,a0,4536
  400c7c:	00002810 	mfhi	a1
  400c80:	00a32821 	addu	a1,a1,v1
  400c84:	00052943 	sra	a1,a1,0x5
  400c88:	0320f809 	jalr	t9
  400c8c:	00a22823 	subu	a1,a1,v0
  400c90:	8fa30084 	lw	v1,132(sp)
  400c94:	8fbc0018 	lw	gp,24(sp)
  400c98:	00700018 	mult	v1,s0
  400c9c:	000317c3 	sra	v0,v1,0x1f
  400ca0:	00008010 	mfhi	s0
  400ca4:	02038021 	addu	s0,s0,v1
  400ca8:	00108143 	sra	s0,s0,0x5
  400cac:	02028023 	subu	s0,s0,v0
  400cb0:	00101100 	sll	v0,s0,0x4
  400cb4:	00501023 	subu	v0,v0,s0
  400cb8:	00021080 	sll	v0,v0,0x2
  400cbc:	00621823 	subu	v1,v1,v0
  400cc0:	afa30084 	sw	v1,132(sp)
  400cc4:	8f84801c 	lw	a0,-32740(gp)
  400cc8:	8f998074 	lw	t9,printf
  400ccc:	8fa50084 	lw	a1,132(sp)
  400cd0:	1000000a 	b	400cfc <main+0x4bc>
  400cd4:	248411c8 	addiu	a0,a0,4552
  400cd8:	8f99805c 	lw	t9,-32676(gp)
  400cdc:	00000000 	nop
  400ce0:	0320f809 	jalr	t9
  400ce4:	27a40084 	addiu	a0,sp,132
  400ce8:	8fbc0018 	lw	gp,24(sp)
  400cec:	00402821 	move	a1,v0
  400cf0:	8f84801c 	lw	a0,-32740(gp)
  400cf4:	8f998074 	lw	t9,printf
  400cf8:	248411d8 	addiu	a0,a0,4568
  400cfc:	0320f809 	jalr	t9
[[0;32m+[0m][0;32m /home/test/Desktop/MIPS-dir810_FW202B01-03/sbin/dumpleases (-rwxr-xr-x test test) -[0m Vulnerable function: [0;36mprintf [0m/ [0;31mFunction count: 13 [0m
[0m
