
/home/test/Desktop/MIPS-dir810_FW202B01-03/sbin/dnsTest:     Dateiformat elf32-littlemips


Disassembly of section .init:

004005a4 <_init>:
  4005a4:	3c1c0005 	lui	gp,0x5
  4005a8:	279c872c 	addiu	gp,gp,-30932
  4005ac:	0399e021 	addu	gp,gp,t9
  4005b0:	27bdffe0 	addiu	sp,sp,-32
  4005b4:	afbc0010 	sw	gp,16(sp)
  4005b8:	afbf001c 	sw	ra,28(sp)
  4005bc:	afbc0018 	sw	gp,24(sp)
  4005c0:	04110001 	bal	4005c8 <_init+0x24>
  4005c4:	00000000 	nop
  4005c8:	3c1c0005 	lui	gp,0x5
  4005cc:	279c8708 	addiu	gp,gp,-30968
  4005d0:	039fe021 	addu	gp,gp,ra
  4005d4:	8f99801c 	lw	t9,-32740(gp)
  4005d8:	00000000 	nop
  4005dc:	27390760 	addiu	t9,t9,1888
  4005e0:	0320f809 	jalr	t9
  4005e4:	00000000 	nop
  4005e8:	8fbc0010 	lw	gp,16(sp)
  4005ec:	00000000 	nop
  4005f0:	04110001 	bal	4005f8 <_init+0x54>
  4005f4:	00000000 	nop
  4005f8:	3c1c0005 	lui	gp,0x5
  4005fc:	279c86d8 	addiu	gp,gp,-31016
  400600:	039fe021 	addu	gp,gp,ra
  400604:	8f99801c 	lw	t9,-32740(gp)
  400608:	00000000 	nop
  40060c:	27390a40 	addiu	t9,t9,2624
  400610:	0320f809 	jalr	t9
  400614:	00000000 	nop
  400618:	8fbc0010 	lw	gp,16(sp)
  40061c:	00000000 	nop
  400620:	8fbf001c 	lw	ra,28(sp)
  400624:	03e00008 	jr	ra
  400628:	27bd0020 	addiu	sp,sp,32

Disassembly of section .text:

00400630 <_ftext>:
  400630:	03e00021 	move	zero,ra
  400634:	04110001 	bal	40063c <_ftext+0xc>
  400638:	00000000 	nop
  40063c:	3c1c0005 	lui	gp,0x5
  400640:	279c8694 	addiu	gp,gp,-31084
  400644:	039fe021 	addu	gp,gp,ra
  400648:	0000f821 	move	ra,zero
  40064c:	8f84804c 	lw	a0,-32692(gp)
  400650:	8fa50000 	lw	a1,0(sp)
  400654:	27a60004 	addiu	a2,sp,4
  400658:	2401fff8 	li	at,-8
  40065c:	03a1e824 	and	sp,sp,at
  400660:	27bdffe0 	addiu	sp,sp,-32
  400664:	8f878060 	lw	a3,-32672(gp)
  400668:	8f888044 	lw	t0,-32700(gp)
  40066c:	afa80010 	sw	t0,16(sp)
  400670:	afa20014 	sw	v0,20(sp)
  400674:	afbd0018 	sw	sp,24(sp)
  400678:	8f998050 	lw	t9,-32688(gp)
  40067c:	0320f809 	jalr	t9
  400680:	00000000 	nop
  400684:	1000ffff 	b	400684 <_ftext+0x54>
  400688:	00000000 	nop
  40068c:	00000000 	nop
  400690:	3c1c0005 	lui	gp,0x5
  400694:	279c8640 	addiu	gp,gp,-31168
  400698:	0399e021 	addu	gp,gp,t9
  40069c:	27bdffe0 	addiu	sp,sp,-32
  4006a0:	afbf0018 	sw	ra,24(sp)
  4006a4:	afbc0010 	sw	gp,16(sp)
  4006a8:	8f828018 	lw	v0,-32744(gp)
  4006ac:	00000000 	nop
  4006b0:	24420d50 	addiu	v0,v0,3408
  4006b4:	90420000 	lbu	v0,0(v0)
  4006b8:	00000000 	nop
  4006bc:	1040000a 	beqz	v0,4006e8 <_ftext+0xb8>
  4006c0:	00000000 	nop
  4006c4:	10000022 	b	400750 <_ftext+0x120>
  4006c8:	00000000 	nop
  4006cc:	8f818018 	lw	at,-32744(gp)
  4006d0:	00000000 	nop
  4006d4:	24210cc0 	addiu	at,at,3264
  4006d8:	0320f809 	jalr	t9
  4006dc:	ac220000 	sw	v0,0(at)
  4006e0:	8fbc0010 	lw	gp,16(sp)
  4006e4:	00000000 	nop
  4006e8:	8f828018 	lw	v0,-32744(gp)
  4006ec:	00000000 	nop
  4006f0:	24420cc0 	addiu	v0,v0,3264
  4006f4:	8c420000 	lw	v0,0(v0)
  4006f8:	00000000 	nop
  4006fc:	8c590000 	lw	t9,0(v0)
  400700:	00000000 	nop
  400704:	1720fff1 	bnez	t9,4006cc <_ftext+0x9c>
  400708:	24420004 	addiu	v0,v0,4
  40070c:	8f82805c 	lw	v0,-32676(gp)
  400710:	00000000 	nop
  400714:	1040000a 	beqz	v0,400740 <_ftext+0x110>
  400718:	24020001 	li	v0,1
  40071c:	8f84801c 	lw	a0,-32740(gp)
  400720:	00000000 	nop
  400724:	24840c84 	addiu	a0,a0,3204
  400728:	8f99805c 	lw	t9,-32676(gp)
  40072c:	00000000 	nop
  400730:	0320f809 	jalr	t9
  400734:	00000000 	nop
  400738:	8fbc0010 	lw	gp,16(sp)
  40073c:	24020001 	li	v0,1
  400740:	8f818018 	lw	at,-32744(gp)
  400744:	00000000 	nop
  400748:	24210d50 	addiu	at,at,3408
  40074c:	a0220000 	sb	v0,0(at)
  400750:	8fbf0018 	lw	ra,24(sp)
  400754:	00000000 	nop
  400758:	03e00008 	jr	ra
  40075c:	27bd0020 	addiu	sp,sp,32
  400760:	3c1c0005 	lui	gp,0x5
  400764:	279c8570 	addiu	gp,gp,-31376
  400768:	0399e021 	addu	gp,gp,t9
  40076c:	27bdffe0 	addiu	sp,sp,-32
  400770:	afbf0018 	sw	ra,24(sp)
  400774:	afbc0010 	sw	gp,16(sp)
  400778:	8f828034 	lw	v0,-32716(gp)
  40077c:	8f84801c 	lw	a0,-32740(gp)
  400780:	00000000 	nop
  400784:	24840c84 	addiu	a0,a0,3204
  400788:	8f858018 	lw	a1,-32744(gp)
  40078c:	00000000 	nop
  400790:	24a50d54 	addiu	a1,a1,3412
  400794:	10400007 	beqz	v0,4007b4 <_ftext+0x184>
  400798:	00000000 	nop
  40079c:	8f998034 	lw	t9,-32716(gp)
  4007a0:	00000000 	nop
  4007a4:	0320f809 	jalr	t9
  4007a8:	00000000 	nop
  4007ac:	8fbc0010 	lw	gp,16(sp)
  4007b0:	00000000 	nop
  4007b4:	8f828018 	lw	v0,-32744(gp)
  4007b8:	00000000 	nop
  4007bc:	24420c98 	addiu	v0,v0,3224
  4007c0:	8c420000 	lw	v0,0(v0)
  4007c4:	00000000 	nop
  4007c8:	1040000c 	beqz	v0,4007fc <_ftext+0x1cc>
  4007cc:	00000000 	nop
  4007d0:	8f828038 	lw	v0,-32712(gp)
  4007d4:	8f848018 	lw	a0,-32744(gp)
  4007d8:	00000000 	nop
  4007dc:	24840c98 	addiu	a0,a0,3224
  4007e0:	10400006 	beqz	v0,4007fc <_ftext+0x1cc>
  4007e4:	00000000 	nop
  4007e8:	8f998038 	lw	t9,-32712(gp)
  4007ec:	00000000 	nop
  4007f0:	0320f809 	jalr	t9
  4007f4:	00000000 	nop
  4007f8:	8fbc0010 	lw	gp,16(sp)
  4007fc:	8fbf0018 	lw	ra,24(sp)
  400800:	00000000 	nop
  400804:	03e00008 	jr	ra
  400808:	27bd0020 	addiu	sp,sp,32
  40080c:	00000000 	nop

00400810 <ping_test>:
  400810:	3c1c0005 	lui	gp,0x5
  400814:	279c84c0 	addiu	gp,gp,-31552
  400818:	0399e021 	addu	gp,gp,t9
  40081c:	27bdfe88 	addiu	sp,sp,-376
  400820:	afbf0170 	sw	ra,368(sp)
  400824:	afb5016c 	sw	s5,364(sp)
  400828:	afb40168 	sw	s4,360(sp)
  40082c:	afb30164 	sw	s3,356(sp)
  400830:	afb20160 	sw	s2,352(sp)
  400834:	afb1015c 	sw	s1,348(sp)
  400838:	afb00158 	sw	s0,344(sp)
  40083c:	afbc0010 	sw	gp,16(sp)
  400840:	8f85801c 	lw	a1,-32740(gp)
  400844:	8f998040 	lw	t9,-32704(gp)
  400848:	27b50058 	addiu	s5,sp,88
  40084c:	00803021 	move	a2,a0
  400850:	24a50bc8 	addiu	a1,a1,3016
  400854:	02a02021 	move	a0,s5
  400858:	0320f809 	jalr	t9
  40085c:	00009821 	move	s3,zero
  400860:	8fbc0010 	lw	gp,16(sp)
  400864:	02609021 	move	s2,s3
  400868:	8f99806c 	lw	t9,-32660(gp)
  40086c:	00000000 	nop
  400870:	0320f809 	jalr	t9
  400874:	02a02021 	move	a0,s5
  400878:	8fbc0010 	lw	gp,16(sp)
  40087c:	00008821 	move	s1,zero
  400880:	8f94801c 	lw	s4,-32740(gp)
  400884:	8f85801c 	lw	a1,-32740(gp)
  400888:	8f998030 	lw	t9,-32720(gp)
  40088c:	26840c04 	addiu	a0,s4,3076
  400890:	0320f809 	jalr	t9
  400894:	24a50c14 	addiu	a1,a1,3092
  400898:	8fbc0010 	lw	gp,16(sp)
  40089c:	26310001 	addiu	s1,s1,1
  4008a0:	00408021 	move	s0,v0
  4008a4:	8f998068 	lw	t9,-32664(gp)
  4008a8:	10400028 	beqz	v0,40094c <ping_test+0x13c>
  4008ac:	00402021 	move	a0,v0
  4008b0:	0320f809 	jalr	t9
  4008b4:	00000000 	nop
  4008b8:	8fbc0010 	lw	gp,16(sp)
  4008bc:	02003021 	move	a2,s0
  4008c0:	8f998070 	lw	t9,-32656(gp)
  4008c4:	27a40018 	addiu	a0,sp,24
  4008c8:	1440001a 	bnez	v0,400934 <ping_test+0x124>
  4008cc:	2405003f 	li	a1,63
  4008d0:	0320f809 	jalr	t9
  4008d4:	00000000 	nop
  4008d8:	8fbc0010 	lw	gp,16(sp)
  4008dc:	27a40018 	addiu	a0,sp,24
  4008e0:	8f85801c 	lw	a1,-32740(gp)
  4008e4:	8f998058 	lw	t9,-32680(gp)
  4008e8:	00000000 	nop
  4008ec:	0320f809 	jalr	t9
  4008f0:	24a50c18 	addiu	a1,a1,3096
  4008f4:	8fbc0010 	lw	gp,16(sp)
  4008f8:	1040000e 	beqz	v0,400934 <ping_test+0x124>
  4008fc:	00000000 	nop
  400900:	8f998048 	lw	t9,-32696(gp)
  400904:	00000000 	nop
  400908:	0320f809 	jalr	t9
  40090c:	02002021 	move	a0,s0
  400910:	8fbc0010 	lw	gp,16(sp)
  400914:	26840c04 	addiu	a0,s4,3076
  400918:	8f998054 	lw	t9,-32684(gp)
  40091c:	00000000 	nop
  400920:	0320f809 	jalr	t9
  400924:	24130001 	li	s3,1
  400928:	8fbc0010 	lw	gp,16(sp)
  40092c:	1000001f 	b	4009ac <ping_test+0x19c>
  400930:	02601021 	move	v0,s3
  400934:	8f998048 	lw	t9,-32696(gp)
  400938:	00000000 	nop
  40093c:	0320f809 	jalr	t9
  400940:	02002021 	move	a0,s0
  400944:	8fbc0010 	lw	gp,16(sp)
  400948:	00000000 	nop
  40094c:	8f998064 	lw	t9,-32668(gp)
  400950:	00000000 	nop
  400954:	0320f809 	jalr	t9
  400958:	24040001 	li	a0,1
  40095c:	2a22000a 	slti	v0,s1,10
  400960:	8fbc0010 	lw	gp,16(sp)
  400964:	1440ffc6 	bnez	v0,400880 <ping_test+0x70>
  400968:	00000000 	nop
  40096c:	8f84801c 	lw	a0,-32740(gp)
  400970:	8f99806c 	lw	t9,-32660(gp)
  400974:	00000000 	nop
  400978:	0320f809 	jalr	t9
  40097c:	24840c20 	addiu	a0,a0,3104
  400980:	8fbc0010 	lw	gp,16(sp)
  400984:	26520001 	addiu	s2,s2,1
  400988:	8f84801c 	lw	a0,-32740(gp)
  40098c:	8f998054 	lw	t9,-32684(gp)
  400990:	00000000 	nop
  400994:	0320f809 	jalr	t9
  400998:	24840c04 	addiu	a0,a0,3076
  40099c:	2a420003 	slti	v0,s2,3
  4009a0:	8fbc0010 	lw	gp,16(sp)
  4009a4:	1440ffb0 	bnez	v0,400868 <ping_test+0x58>
  4009a8:	02601021 	move	v0,s3
  4009ac:	8fbf0170 	lw	ra,368(sp)
  4009b0:	8fb5016c 	lw	s5,364(sp)
  4009b4:	8fb40168 	lw	s4,360(sp)
  4009b8:	8fb30164 	lw	s3,356(sp)
  4009bc:	8fb20160 	lw	s2,352(sp)
  4009c0:	8fb1015c 	lw	s1,348(sp)
  4009c4:	8fb00158 	lw	s0,344(sp)
  4009c8:	03e00008 	jr	ra
  4009cc:	27bd0178 	addiu	sp,sp,376

004009d0 <main>:
  4009d0:	3c1c0005 	lui	gp,0x5
  4009d4:	279c8300 	addiu	gp,gp,-32000
  4009d8:	0399e021 	addu	gp,gp,t9
  4009dc:	27bdffe0 	addiu	sp,sp,-32
  4009e0:	afbf0018 	sw	ra,24(sp)
  4009e4:	afbc0010 	sw	gp,16(sp)
  4009e8:	8f84801c 	lw	a0,-32740(gp)
  4009ec:	8f99803c 	lw	t9,-32708(gp)
  4009f0:	00000000 	nop
  4009f4:	0320f809 	jalr	t9
  4009f8:	24840c34 	addiu	a0,a0,3124
  4009fc:	8fbc0010 	lw	gp,16(sp)
  400a00:	00000000 	nop
  400a04:	8f84801c 	lw	a0,-32740(gp)
  400a08:	8f99806c 	lw	t9,-32660(gp)
  400a0c:	14400004 	bnez	v0,400a20 <main+0x50>
  400a10:	24840c44 	addiu	a0,a0,3140
  400a14:	8f84801c 	lw	a0,-32740(gp)
  400a18:	00000000 	nop
  400a1c:	24840c64 	addiu	a0,a0,3172
  400a20:	0320f809 	jalr	t9
  400a24:	00000000 	nop
  400a28:	8fbc0010 	lw	gp,16(sp)
  400a2c:	8fbf0018 	lw	ra,24(sp)
  400a30:	00001021 	move	v0,zero
  400a34:	03e00008 	jr	ra
  400a38:	27bd0020 	addiu	sp,sp,32
  400a3c:	00000000 	nop
  400a40:	3c1c0005 	lui	gp,0x5
  400a44:	279c8290 	addiu	gp,gp,-32112
  400a48:	0399e021 	addu	gp,gp,t9
  400a4c:	27bdffd8 	addiu	sp,sp,-40
  400a50:	afbf0020 	sw	ra,32(sp)
  400a54:	afb1001c 	sw	s1,28(sp)
  400a58:	afb00018 	sw	s0,24(sp)
  400a5c:	afbc0010 	sw	gp,16(sp)
  400a60:	8f998018 	lw	t9,-32744(gp)
  400a64:	00000000 	nop
  400a68:	27390c8c 	addiu	t9,t9,3212
  400a6c:	8f39fffc 	lw	t9,-4(t9)
  400a70:	2402ffff 	li	v0,-1
  400a74:	8f908018 	lw	s0,-32744(gp)
  400a78:	00000000 	nop
  400a7c:	26100c88 	addiu	s0,s0,3208
  400a80:	13220009 	beq	t9,v0,400aa8 <main+0xd8>
  400a84:	2411ffff 	li	s1,-1
  400a88:	2610fffc 	addiu	s0,s0,-4
  400a8c:	0320f809 	jalr	t9
  400a90:	00000000 	nop
  400a94:	8fbc0010 	lw	gp,16(sp)
  400a98:	8e190000 	lw	t9,0(s0)
  400a9c:	00000000 	nop
  400aa0:	1731fffa 	bne	t9,s1,400a8c <main+0xbc>
  400aa4:	2610fffc 	addiu	s0,s0,-4
  400aa8:	8fbf0020 	lw	ra,32(sp)
  400aac:	8fb1001c 	lw	s1,28(sp)
  400ab0:	8fb00018 	lw	s0,24(sp)
  400ab4:	03e00008 	jr	ra
  400ab8:	27bd0028 	addiu	sp,sp,40
  400abc:	00000000 	nop

Disassembly of section .fini:

00400b70 <_fini>:
  400b70:	3c1c0005 	lui	gp,0x5
  400b74:	279c8160 	addiu	gp,gp,-32416
  400b78:	0399e021 	addu	gp,gp,t9
  400b7c:	27bdffe0 	addiu	sp,sp,-32
  400b80:	afbc0010 	sw	gp,16(sp)
  400b84:	afbf001c 	sw	ra,28(sp)
  400b88:	afbc0018 	sw	gp,24(sp)
  400b8c:	04110001 	bal	400b94 <_fini+0x24>
  400b90:	00000000 	nop
  400b94:	3c1c0005 	lui	gp,0x5
  400b98:	279c813c 	addiu	gp,gp,-32452
  400b9c:	039fe021 	addu	gp,gp,ra
  400ba0:	8f99801c 	lw	t9,-32740(gp)
  400ba4:	00000000 	nop
  400ba8:	27390690 	addiu	t9,t9,1680
  400bac:	0320f809 	jalr	t9
  400bb0:	00000000 	nop
  400bb4:	8fbc0010 	lw	gp,16(sp)
  400bb8:	00000000 	nop
  400bbc:	8fbf001c 	lw	ra,28(sp)
  400bc0:	03e00008 	jr	ra
  400bc4:	27bd0020 	addiu	sp,sp,32
