
/home/test/Desktop/MIPS-dir810_FW202B01-03/sbin/bulkagent:     Dateiformat elf32-littlemips


Disassembly of section .init:

00400b50 <_init>:
  400b50:	3c1c0005 	lui	gp,0x5
  400b54:	279cb1f0 	addiu	gp,gp,-19984
  400b58:	0399e021 	addu	gp,gp,t9
  400b5c:	27bdffe0 	addiu	sp,sp,-32
  400b60:	afbc0010 	sw	gp,16(sp)
  400b64:	afbf001c 	sw	ra,28(sp)
  400b68:	afbc0018 	sw	gp,24(sp)
  400b6c:	04110001 	bal	400b74 <_init+0x24>
  400b70:	00000000 	nop
  400b74:	3c1c0005 	lui	gp,0x5
  400b78:	279cb1cc 	addiu	gp,gp,-20020
  400b7c:	039fe021 	addu	gp,gp,ra
  400b80:	8f99801c 	lw	t9,-32740(gp)
  400b84:	00000000 	nop
  400b88:	27390d10 	addiu	t9,t9,3344
  400b8c:	0320f809 	jalr	t9
  400b90:	00000000 	nop
  400b94:	8fbc0010 	lw	gp,16(sp)
  400b98:	00000000 	nop
  400b9c:	04110001 	bal	400ba4 <_init+0x54>
  400ba0:	00000000 	nop
  400ba4:	3c1c0005 	lui	gp,0x5
  400ba8:	279cb19c 	addiu	gp,gp,-20068
  400bac:	039fe021 	addu	gp,gp,ra
  400bb0:	8f99801c 	lw	t9,-32740(gp)
  400bb4:	00000000 	nop
  400bb8:	27393130 	addiu	t9,t9,12592
  400bbc:	0320f809 	jalr	t9
  400bc0:	00000000 	nop
  400bc4:	8fbc0010 	lw	gp,16(sp)
  400bc8:	00000000 	nop
  400bcc:	8fbf001c 	lw	ra,28(sp)
  400bd0:	03e00008 	jr	ra
  400bd4:	27bd0020 	addiu	sp,sp,32

Disassembly of section .text:

00400be0 <_ftext>:
  400be0:	03e00021 	move	zero,ra
  400be4:	04110001 	bal	400bec <_ftext+0xc>
  400be8:	00000000 	nop
  400bec:	3c1c0005 	lui	gp,0x5
  400bf0:	279cb154 	addiu	gp,gp,-20140
  400bf4:	039fe021 	addu	gp,gp,ra
  400bf8:	0000f821 	move	ra,zero
  400bfc:	8f848074 	lw	a0,-32652(gp)
  400c00:	8fa50000 	lw	a1,0(sp)
  400c04:	27a60004 	addiu	a2,sp,4
  400c08:	2401fff8 	li	at,-8
  400c0c:	03a1e824 	and	sp,sp,at
  400c10:	27bdffe0 	addiu	sp,sp,-32
  400c14:	8f8780ac 	lw	a3,-32596(gp)
  400c18:	8f888060 	lw	t0,-32672(gp)
  400c1c:	afa80010 	sw	t0,16(sp)
  400c20:	afa20014 	sw	v0,20(sp)
  400c24:	afbd0018 	sw	sp,24(sp)
  400c28:	8f998084 	lw	t9,-32636(gp)
  400c2c:	0320f809 	jalr	t9
  400c30:	00000000 	nop
  400c34:	1000ffff 	b	400c34 <_ftext+0x54>
  400c38:	00000000 	nop
  400c3c:	00000000 	nop
  400c40:	3c1c0005 	lui	gp,0x5
  400c44:	279cb100 	addiu	gp,gp,-20224
  400c48:	0399e021 	addu	gp,gp,t9
  400c4c:	27bdffe0 	addiu	sp,sp,-32
  400c50:	afbf0018 	sw	ra,24(sp)
  400c54:	afbc0010 	sw	gp,16(sp)
  400c58:	8f828018 	lw	v0,-32744(gp)
  400c5c:	00000000 	nop
  400c60:	24423e60 	addiu	v0,v0,15968
  400c64:	90420000 	lbu	v0,0(v0)
  400c68:	00000000 	nop
  400c6c:	1040000a 	beqz	v0,400c98 <_ftext+0xb8>
  400c70:	00000000 	nop
  400c74:	10000022 	b	400d00 <_ftext+0x120>
  400c78:	00000000 	nop
  400c7c:	8f818018 	lw	at,-32744(gp)
  400c80:	00000000 	nop
  400c84:	24213d20 	addiu	at,at,15648
  400c88:	0320f809 	jalr	t9
  400c8c:	ac220000 	sw	v0,0(at)
  400c90:	8fbc0010 	lw	gp,16(sp)
  400c94:	00000000 	nop
  400c98:	8f828018 	lw	v0,-32744(gp)
  400c9c:	00000000 	nop
  400ca0:	24423d20 	addiu	v0,v0,15648
  400ca4:	8c420000 	lw	v0,0(v0)
  400ca8:	00000000 	nop
  400cac:	8c590000 	lw	t9,0(v0)
  400cb0:	00000000 	nop
  400cb4:	1720fff1 	bnez	t9,400c7c <_ftext+0x9c>
  400cb8:	24420004 	addiu	v0,v0,4
  400cbc:	8f828098 	lw	v0,-32616(gp)
  400cc0:	00000000 	nop
  400cc4:	1040000a 	beqz	v0,400cf0 <_ftext+0x110>
  400cc8:	24020001 	li	v0,1
  400ccc:	8f84801c 	lw	a0,-32740(gp)
  400cd0:	00000000 	nop
  400cd4:	24843ce0 	addiu	a0,a0,15584
  400cd8:	8f998098 	lw	t9,-32616(gp)
  400cdc:	00000000 	nop
  400ce0:	0320f809 	jalr	t9
  400ce4:	00000000 	nop
  400ce8:	8fbc0010 	lw	gp,16(sp)
  400cec:	24020001 	li	v0,1
  400cf0:	8f818018 	lw	at,-32744(gp)
  400cf4:	00000000 	nop
  400cf8:	24213e60 	addiu	at,at,15968
  400cfc:	a0220000 	sb	v0,0(at)
  400d00:	8fbf0018 	lw	ra,24(sp)
  400d04:	00000000 	nop
  400d08:	03e00008 	jr	ra
  400d0c:	27bd0020 	addiu	sp,sp,32
  400d10:	3c1c0005 	lui	gp,0x5
  400d14:	279cb030 	addiu	gp,gp,-20432
  400d18:	0399e021 	addu	gp,gp,t9
  400d1c:	27bdffe0 	addiu	sp,sp,-32
  400d20:	afbf0018 	sw	ra,24(sp)
  400d24:	afbc0010 	sw	gp,16(sp)
  400d28:	8f828038 	lw	v0,-32712(gp)
  400d2c:	8f84801c 	lw	a0,-32740(gp)
  400d30:	00000000 	nop
  400d34:	24843ce0 	addiu	a0,a0,15584
  400d38:	8f858018 	lw	a1,-32744(gp)
  400d3c:	00000000 	nop
  400d40:	24a53e64 	addiu	a1,a1,15972
  400d44:	10400007 	beqz	v0,400d64 <_ftext+0x184>
  400d48:	00000000 	nop
  400d4c:	8f998038 	lw	t9,-32712(gp)
  400d50:	00000000 	nop
  400d54:	0320f809 	jalr	t9
  400d58:	00000000 	nop
  400d5c:	8fbc0010 	lw	gp,16(sp)
  400d60:	00000000 	nop
  400d64:	8f828018 	lw	v0,-32744(gp)
  400d68:	00000000 	nop
  400d6c:	24423cf4 	addiu	v0,v0,15604
  400d70:	8c420000 	lw	v0,0(v0)
  400d74:	00000000 	nop
  400d78:	1040000c 	beqz	v0,400dac <_ftext+0x1cc>
  400d7c:	00000000 	nop
  400d80:	8f82803c 	lw	v0,-32708(gp)
  400d84:	8f848018 	lw	a0,-32744(gp)
  400d88:	00000000 	nop
  400d8c:	24843cf4 	addiu	a0,a0,15604
  400d90:	10400006 	beqz	v0,400dac <_ftext+0x1cc>
  400d94:	00000000 	nop
  400d98:	8f99803c 	lw	t9,-32708(gp)
  400d9c:	00000000 	nop
  400da0:	0320f809 	jalr	t9
  400da4:	00000000 	nop
  400da8:	8fbc0010 	lw	gp,16(sp)
  400dac:	8fbf0018 	lw	ra,24(sp)
  400db0:	00000000 	nop
  400db4:	03e00008 	jr	ra
  400db8:	27bd0020 	addiu	sp,sp,32
  400dbc:	00000000 	nop
  400dc0:	3c1c0005 	lui	gp,0x5
  400dc4:	279caf80 	addiu	gp,gp,-20608
  400dc8:	0399e021 	addu	gp,gp,t9
  400dcc:	27bdffb0 	addiu	sp,sp,-80
  400dd0:	afbf0048 	sw	ra,72(sp)
  400dd4:	afb10044 	sw	s1,68(sp)
  400dd8:	afb00040 	sw	s0,64(sp)
  400ddc:	afbc0010 	sw	gp,16(sp)
  400de0:	8f998040 	lw	t9,-32704(gp)
  400de4:	00000000 	nop
  400de8:	0320f809 	jalr	t9
  400dec:	00808821 	move	s1,a0
  400df0:	8fbc0010 	lw	gp,16(sp)
  400df4:	02221021 	addu	v0,s1,v0
  400df8:	8f998078 	lw	t9,-32648(gp)
  400dfc:	8043ffff 	lb	v1,-1(v0)
  400e00:	27b00018 	addiu	s0,sp,24
  400e04:	2402002f 	li	v0,47
  400e08:	03203821 	move	a3,t9
  400e0c:	02002021 	move	a0,s0
  400e10:	00002821 	move	a1,zero
  400e14:	8f9980d4 	lw	t9,-32556(gp)
  400e18:	10620004 	beq	v1,v0,400e2c <_ftext+0x24c>
  400e1c:	24060028 	li	a2,40
  400e20:	8f84801c 	lw	a0,-32740(gp)
  400e24:	10000025 	b	400ebc <_ftext+0x2dc>
  400e28:	248434a0 	addiu	a0,a0,13472
  400e2c:	00e0c821 	move	t9,a3
  400e30:	0320f809 	jalr	t9
  400e34:	00000000 	nop
  400e38:	8fbc0010 	lw	gp,16(sp)
  400e3c:	02002021 	move	a0,s0
  400e40:	8f87801c 	lw	a3,-32740(gp)
  400e44:	8f85801c 	lw	a1,-32740(gp)
  400e48:	8f99805c 	lw	t9,-32676(gp)
  400e4c:	02203021 	move	a2,s1
  400e50:	24e734d4 	addiu	a3,a3,13524
  400e54:	0320f809 	jalr	t9
  400e58:	24a534e0 	addiu	a1,a1,13536
  400e5c:	8fbc0010 	lw	gp,16(sp)
  400e60:	02002021 	move	a0,s0
  400e64:	8f85801c 	lw	a1,-32740(gp)
  400e68:	8f998080 	lw	t9,-32640(gp)
  400e6c:	00000000 	nop
  400e70:	0320f809 	jalr	t9
  400e74:	24a534e8 	addiu	a1,a1,13544
  400e78:	8fbc0010 	lw	gp,16(sp)
  400e7c:	00000000 	nop
  400e80:	8f99806c 	lw	t9,-32660(gp)
  400e84:	00000000 	nop
  400e88:	03201821 	move	v1,t9
  400e8c:	8f9980d4 	lw	t9,-32556(gp)
  400e90:	10400007 	beqz	v0,400eb0 <_ftext+0x2d0>
  400e94:	00402021 	move	a0,v0
  400e98:	0060c821 	move	t9,v1
  400e9c:	0320f809 	jalr	t9
  400ea0:	00000000 	nop
  400ea4:	8fbc0010 	lw	gp,16(sp)
  400ea8:	10000008 	b	400ecc <_ftext+0x2ec>
  400eac:	24020001 	li	v0,1
  400eb0:	8f84801c 	lw	a0,-32740(gp)
  400eb4:	00000000 	nop
  400eb8:	248434ec 	addiu	a0,a0,13548
  400ebc:	0320f809 	jalr	t9
  400ec0:	00000000 	nop
  400ec4:	8fbc0010 	lw	gp,16(sp)
  400ec8:	00001021 	move	v0,zero
  400ecc:	8fbf0048 	lw	ra,72(sp)
  400ed0:	8fb10044 	lw	s1,68(sp)
  400ed4:	8fb00040 	lw	s0,64(sp)
  400ed8:	03e00008 	jr	ra
  400edc:	27bd0050 	addiu	sp,sp,80
  400ee0:	3c1c0005 	lui	gp,0x5
  400ee4:	279cae60 	addiu	gp,gp,-20896
  400ee8:	0399e021 	addu	gp,gp,t9
  400eec:	27bdffd8 	addiu	sp,sp,-40
  400ef0:	afbf0024 	sw	ra,36(sp)
  400ef4:	afb20020 	sw	s2,32(sp)
  400ef8:	afb1001c 	sw	s1,28(sp)
  400efc:	afb00018 	sw	s0,24(sp)
  400f00:	afbc0010 	sw	gp,16(sp)
  400f04:	8f9980fc 	lw	t9,-32516(gp)
  400f08:	afa40028 	sw	a0,40(sp)
  400f0c:	00c09021 	move	s2,a2
  400f10:	27a40028 	addiu	a0,sp,40
  400f14:	24060004 	li	a2,4
  400f18:	0320f809 	jalr	t9
  400f1c:	00a08021 	move	s0,a1
  400f20:	8fbc0010 	lw	gp,16(sp)
  400f24:	00408821 	move	s1,v0
  400f28:	8f84801c 	lw	a0,-32740(gp)
  400f2c:	8f9980dc 	lw	t9,-32548(gp)
  400f30:	04410009 	bgez	v0,400f58 <_ftext+0x378>
  400f34:	24843510 	addiu	a0,a0,13584
  400f38:	0320f809 	jalr	t9
  400f3c:	00000000 	nop
  400f40:	8fbc0010 	lw	gp,16(sp)
  400f44:	2403006a 	li	v1,106
  400f48:	8f828018 	lw	v0,-32744(gp)
  400f4c:	00003821 	move	a3,zero
  400f50:	1000002f 	b	401010 <_ftext+0x430>
  400f54:	ac433e80 	sw	v1,16000(v0)
  400f58:	92030003 	lbu	v1,3(s0)
  400f5c:	92020002 	lbu	v0,2(s0)
  400f60:	92070001 	lbu	a3,1(s0)
  400f64:	00031a00 	sll	v1,v1,0x8
  400f68:	92040000 	lbu	a0,0(s0)
  400f6c:	00621825 	or	v1,v1,v0
  400f70:	306200ff 	andi	v0,v1,0xff
  400f74:	00073a00 	sll	a3,a3,0x8
  400f78:	00e43825 	or	a3,a3,a0
  400f7c:	00021200 	sll	v0,v0,0x8
  400f80:	00031a02 	srl	v1,v1,0x8
  400f84:	00621825 	or	v1,v1,v0
  400f88:	30e200ff 	andi	v0,a3,0xff
  400f8c:	00034a02 	srl	t1,v1,0x8
  400f90:	00021200 	sll	v0,v0,0x8
  400f94:	00073a02 	srl	a3,a3,0x8
  400f98:	00e23825 	or	a3,a3,v0
  400f9c:	306300ff 	andi	v1,v1,0xff
  400fa0:	00094200 	sll	t0,t1,0x8
  400fa4:	00071202 	srl	v0,a3,0x8
  400fa8:	01034025 	or	t0,t0,v1
  400fac:	a2070000 	sb	a3,0(s0)
  400fb0:	8f9980fc 	lw	t9,-32516(gp)
  400fb4:	02402821 	move	a1,s2
  400fb8:	27a40028 	addiu	a0,sp,40
  400fbc:	01003021 	move	a2,t0
  400fc0:	a2020001 	sb	v0,1(s0)
  400fc4:	a2090003 	sb	t1,3(s0)
  400fc8:	a2030002 	sb	v1,2(s0)
  400fcc:	19000010 	blez	t0,401010 <_ftext+0x430>
  400fd0:	02203821 	move	a3,s1
  400fd4:	0320f809 	jalr	t9
  400fd8:	00000000 	nop
  400fdc:	8fbc0010 	lw	gp,16(sp)
  400fe0:	02223821 	addu	a3,s1,v0
  400fe4:	8f84801c 	lw	a0,-32740(gp)
  400fe8:	8f9980dc 	lw	t9,-32548(gp)
  400fec:	04410008 	bgez	v0,401010 <_ftext+0x430>
  400ff0:	24843510 	addiu	a0,a0,13584
  400ff4:	0320f809 	jalr	t9
  400ff8:	00000000 	nop
  400ffc:	8fbc0010 	lw	gp,16(sp)
  401000:	2403006a 	li	v1,106
  401004:	8f828018 	lw	v0,-32744(gp)
  401008:	00003821 	move	a3,zero
  40100c:	ac433e80 	sw	v1,16000(v0)
  401010:	8fbf0024 	lw	ra,36(sp)
  401014:	8fb20020 	lw	s2,32(sp)
  401018:	8fb1001c 	lw	s1,28(sp)
  40101c:	8fb00018 	lw	s0,24(sp)
  401020:	00e01021 	move	v0,a3
  401024:	03e00008 	jr	ra
  401028:	27bd0028 	addiu	sp,sp,40
  40102c:	3c1c0005 	lui	gp,0x5
  401030:	279cad14 	addiu	gp,gp,-21228
  401034:	0399e021 	addu	gp,gp,t9
  401038:	27bdffd0 	addiu	sp,sp,-48
  40103c:	afbf002c 	sw	ra,44(sp)
  401040:	afb40028 	sw	s4,40(sp)
  401044:	afb30024 	sw	s3,36(sp)
  401048:	afb20020 	sw	s2,32(sp)
  40104c:	afb1001c 	sw	s1,28(sp)
  401050:	afb00018 	sw	s0,24(sp)
  401054:	afbc0010 	sw	gp,16(sp)
  401058:	90900003 	lbu	s0,3(a0)
  40105c:	90820002 	lbu	v0,2(a0)
  401060:	00108200 	sll	s0,s0,0x8
  401064:	02028025 	or	s0,s0,v0
  401068:	8f9980cc 	lw	t9,-32564(gp)
  40106c:	26100010 	addiu	s0,s0,16
  401070:	00809021 	move	s2,a0
  401074:	02002021 	move	a0,s0
  401078:	00c09821 	move	s3,a2
  40107c:	0320f809 	jalr	t9
  401080:	00a0a021 	move	s4,a1
  401084:	8fbc0010 	lw	gp,16(sp)
  401088:	00408821 	move	s1,v0
  40108c:	8f998078 	lw	t9,-32648(gp)
  401090:	02003021 	move	a2,s0
  401094:	00402021 	move	a0,v0
  401098:	00002821 	move	a1,zero
  40109c:	14400005 	bnez	v0,4010b4 <_ftext+0x4d4>
  4010a0:	00003821 	move	a3,zero
  4010a4:	8f828018 	lw	v0,-32744(gp)
  4010a8:	24030067 	li	v1,103
  4010ac:	10000022 	b	401138 <_ftext+0x558>
  4010b0:	ac433e80 	sw	v1,16000(v0)
  4010b4:	0320f809 	jalr	t9
  4010b8:	00000000 	nop
  4010bc:	aa310007 	swl	s1,7(s1)
  4010c0:	8a420003 	lwl	v0,3(s2)
  4010c4:	ba310004 	swr	s1,4(s1)
  4010c8:	aa310003 	swl	s1,3(s1)
  4010cc:	9a420000 	lwr	v0,0(s2)
  4010d0:	8fbc0010 	lw	gp,16(sp)
  4010d4:	ba310000 	swr	s1,0(s1)
  4010d8:	aa22000b 	swl	v0,11(s1)
  4010dc:	8f9980e4 	lw	t9,-32540(gp)
  4010e0:	02802821 	move	a1,s4
  4010e4:	2624000c 	addiu	a0,s1,12
  4010e8:	1280000d 	beqz	s4,401120 <_ftext+0x540>
  4010ec:	ba220008 	swr	v0,8(s1)
  4010f0:	92460003 	lbu	a2,3(s2)
  4010f4:	92420002 	lbu	v0,2(s2)
  4010f8:	00063200 	sll	a2,a2,0x8
  4010fc:	0320f809 	jalr	t9
  401100:	00c23025 	or	a2,a2,v0
  401104:	92420003 	lbu	v0,3(s2)
  401108:	92430002 	lbu	v1,2(s2)
  40110c:	00021200 	sll	v0,v0,0x8
  401110:	00431025 	or	v0,v0,v1
  401114:	02221021 	addu	v0,s1,v0
  401118:	8fbc0010 	lw	gp,16(sp)
  40111c:	a040000b 	sb	zero,11(v0)
  401120:	8e620004 	lw	v0,4(s3)
  401124:	24070001 	li	a3,1
  401128:	ae710004 	sw	s1,4(s3)
  40112c:	ac510000 	sw	s1,0(v0)
  401130:	ae220004 	sw	v0,4(s1)
  401134:	ae330000 	sw	s3,0(s1)
  401138:	8fbf002c 	lw	ra,44(sp)
  40113c:	8fb40028 	lw	s4,40(sp)
  401140:	8fb30024 	lw	s3,36(sp)
  401144:	8fb20020 	lw	s2,32(sp)
  401148:	8fb1001c 	lw	s1,28(sp)
  40114c:	8fb00018 	lw	s0,24(sp)
  401150:	00e01021 	move	v0,a3
  401154:	03e00008 	jr	ra
  401158:	27bd0030 	addiu	sp,sp,48
  40115c:	3c1c0005 	lui	gp,0x5
  401160:	279cabe4 	addiu	gp,gp,-21532
  401164:	0399e021 	addu	gp,gp,t9
  401168:	27bdffd8 	addiu	sp,sp,-40
  40116c:	afbf0020 	sw	ra,32(sp)
  401170:	afb1001c 	sw	s1,28(sp)
  401174:	afb00018 	sw	s0,24(sp)
  401178:	afbc0010 	sw	gp,16(sp)
  40117c:	8c820000 	lw	v0,0(a0)
  401180:	00000000 	nop
  401184:	10440015 	beq	v0,a0,4011dc <_ftext+0x5fc>
  401188:	00808021 	move	s0,a0
  40118c:	8f84801c 	lw	a0,-32740(gp)
  401190:	8f9980d4 	lw	t9,-32556(gp)
  401194:	00000000 	nop
  401198:	0320f809 	jalr	t9
  40119c:	2484351c 	addiu	a0,a0,13596
  4011a0:	8fbc0010 	lw	gp,16(sp)
  4011a4:	8e040000 	lw	a0,0(s0)
  4011a8:	00000000 	nop
  4011ac:	8c910000 	lw	s1,0(a0)
  4011b0:	1090000a 	beq	a0,s0,4011dc <_ftext+0x5fc>
  4011b4:	00000000 	nop
  4011b8:	8c820004 	lw	v0,4(a0)
  4011bc:	8c830000 	lw	v1,0(a0)
  4011c0:	8f998030 	lw	t9,-32720(gp)
  4011c4:	ac620004 	sw	v0,4(v1)
  4011c8:	0320f809 	jalr	t9
  4011cc:	ac430000 	sw	v1,0(v0)
  4011d0:	8fbc0010 	lw	gp,16(sp)
  4011d4:	1000fff5 	b	4011ac <_ftext+0x5cc>
  4011d8:	02202021 	move	a0,s1
  4011dc:	8fbf0020 	lw	ra,32(sp)
  4011e0:	8fb1001c 	lw	s1,28(sp)
  4011e4:	8fb00018 	lw	s0,24(sp)
  4011e8:	03e00008 	jr	ra
  4011ec:	27bd0028 	addiu	sp,sp,40

004011f0 <main>:
  4011f0:	3c1c0005 	lui	gp,0x5
  4011f4:	279cab50 	addiu	gp,gp,-21680
  4011f8:	0399e021 	addu	gp,gp,t9
  4011fc:	27bdf760 	addiu	sp,sp,-2208
  401200:	afbf089c 	sw	ra,2204(sp)
  401204:	afbe0898 	sw	s8,2200(sp)
  401208:	afb70894 	sw	s7,2196(sp)
  40120c:	afb60890 	sw	s6,2192(sp)
  401210:	afb5088c 	sw	s5,2188(sp)
  401214:	afb40888 	sw	s4,2184(sp)
  401218:	afb30884 	sw	s3,2180(sp)
  40121c:	afb20880 	sw	s2,2176(sp)
  401220:	afb1087c 	sw	s1,2172(sp)
  401224:	afb00878 	sw	s0,2168(sp)
  401228:	afbc0018 	sw	gp,24(sp)
  40122c:	24020001 	li	v0,1
  401230:	00809821 	move	s3,a0
  401234:	00a08821 	move	s1,a1
  401238:	1482004a 	bne	a0,v0,401364 <main+0x174>
  40123c:	27b70030 	addiu	s7,sp,48
  401240:	8f82801c 	lw	v0,-32740(gp)
  401244:	8f998050 	lw	t9,-32688(gp)
  401248:	2452352c 	addiu	s2,v0,13612
  40124c:	02402021 	move	a0,s2
  401250:	0320f809 	jalr	t9
  401254:	27a50050 	addiu	a1,sp,80
  401258:	2403ffff 	li	v1,-1
  40125c:	8fbc0018 	lw	gp,24(sp)
  401260:	104300a4 	beq	v0,v1,4014f4 <main+0x304>
  401264:	00002021 	move	a0,zero
  401268:	8f85801c 	lw	a1,-32740(gp)
  40126c:	8f998080 	lw	t9,-32640(gp)
  401270:	24a53544 	addiu	a1,a1,13636
  401274:	0320f809 	jalr	t9
  401278:	02402021 	move	a0,s2
  40127c:	8fbc0018 	lw	gp,24(sp)
  401280:	10400017 	beqz	v0,4012e0 <main+0xf0>
  401284:	00408021 	move	s0,v0
  401288:	8f85801c 	lw	a1,-32740(gp)
  40128c:	8f9980ec 	lw	t9,-32532(gp)
  401290:	27b100e8 	addiu	s1,sp,232
  401294:	24a53af4 	addiu	a1,a1,15092
  401298:	00402021 	move	a0,v0
  40129c:	0320f809 	jalr	t9
  4012a0:	02203021 	move	a2,s1
  4012a4:	8fbc0018 	lw	gp,24(sp)
  4012a8:	14530007 	bne	v0,s3,4012c8 <main+0xd8>
  4012ac:	00000000 	nop
  4012b0:	8f998118 	lw	t9,-32488(gp)
  4012b4:	02202821 	move	a1,s1
  4012b8:	0320f809 	jalr	t9
  4012bc:	27a40020 	addiu	a0,sp,32
  4012c0:	8fbc0018 	lw	gp,24(sp)
  4012c4:	00000000 	nop
  4012c8:	8f99806c 	lw	t9,-32660(gp)
  4012cc:	00000000 	nop
  4012d0:	0320f809 	jalr	t9
  4012d4:	02002021 	move	a0,s0
  4012d8:	8fbc0018 	lw	gp,24(sp)
  4012dc:	00000000 	nop
  4012e0:	8f85801c 	lw	a1,-32740(gp)
  4012e4:	8f99805c 	lw	t9,-32676(gp)
  4012e8:	27b000f8 	addiu	s0,sp,248
  4012ec:	24a53548 	addiu	a1,a1,13640
  4012f0:	02403021 	move	a2,s2
  4012f4:	0320f809 	jalr	t9
  4012f8:	02002021 	move	a0,s0
  4012fc:	8fbc0018 	lw	gp,24(sp)
  401300:	00000000 	nop
  401304:	8f9980d0 	lw	t9,-32560(gp)
  401308:	00000000 	nop
  40130c:	0320f809 	jalr	t9
  401310:	02002021 	move	a0,s0
  401314:	8fbc0018 	lw	gp,24(sp)
  401318:	02e02021 	move	a0,s7
  40131c:	8f82801c 	lw	v0,-32740(gp)
  401320:	8f99801c 	lw	t9,-32740(gp)
  401324:	8c433554 	lw	v1,13652(v0)
  401328:	24423554 	addiu	v0,v0,13652
  40132c:	aae30003 	swl	v1,3(s7)
  401330:	8c450004 	lw	a1,4(v0)
  401334:	bae30000 	swr	v1,0(s7)
  401338:	90430009 	lbu	v1,9(v0)
  40133c:	90420008 	lbu	v0,8(v0)
  401340:	aae50007 	swl	a1,7(s7)
  401344:	bae50004 	swr	a1,4(s7)
  401348:	27390dc0 	addiu	t9,t9,3520
  40134c:	a2e20008 	sb	v0,8(s7)
  401350:	0320f809 	jalr	t9
  401354:	a2e30009 	sb	v1,9(s7)
  401358:	8fbc0018 	lw	gp,24(sp)
  40135c:	10000065 	b	4014f4 <main+0x304>
  401360:	0002202b 	sltu	a0,zero,v0
  401364:	28820005 	slti	v0,a0,5
  401368:	10400052 	beqz	v0,4014b4 <main+0x2c4>
  40136c:	00000000 	nop
  401370:	10000048 	b	401494 <main+0x2a4>
  401374:	00000000 	nop
  401378:	24020053 	li	v0,83
  40137c:	10620013 	beq	v1,v0,4013cc <main+0x1dc>
  401380:	00000000 	nop
  401384:	8f9980d4 	lw	t9,-32556(gp)
  401388:	8f84801c 	lw	a0,-32740(gp)
  40138c:	03202821 	move	a1,t9
  401390:	8f9080c4 	lw	s0,-32572(gp)
  401394:	8f998110 	lw	t9,-32496(gp)
  401398:	10c00007 	beqz	a2,4013b8 <main+0x1c8>
  40139c:	24843560 	addiu	a0,a0,13664
  4013a0:	8f84801c 	lw	a0,-32740(gp)
  4013a4:	24020050 	li	v0,80
  4013a8:	10620010 	beq	v1,v0,4013ec <main+0x1fc>
  4013ac:	24843564 	addiu	a0,a0,13668
  4013b0:	10000038 	b	401494 <main+0x2a4>
  4013b4:	00000000 	nop
  4013b8:	24020054 	li	v0,84
  4013bc:	1062001d 	beq	v1,v0,401434 <main+0x244>
  4013c0:	00000000 	nop
  4013c4:	10000033 	b	401494 <main+0x2a4>
  4013c8:	00000000 	nop
  4013cc:	8e050000 	lw	a1,0(s0)
  4013d0:	0320f809 	jalr	t9
  4013d4:	00000000 	nop
  4013d8:	8fbc0018 	lw	gp,24(sp)
  4013dc:	8e050000 	lw	a1,0(s0)
  4013e0:	8f998118 	lw	t9,-32488(gp)
  4013e4:	10000026 	b	401480 <main+0x290>
  4013e8:	27a40020 	addiu	a0,sp,32
  4013ec:	8e050000 	lw	a1,0(s0)
  4013f0:	0320f809 	jalr	t9
  4013f4:	00000000 	nop
  4013f8:	8fbc0018 	lw	gp,24(sp)
  4013fc:	8e040000 	lw	a0,0(s0)
  401400:	8f99801c 	lw	t9,-32740(gp)
  401404:	00000000 	nop
  401408:	27390dc0 	addiu	t9,t9,3520
  40140c:	0320f809 	jalr	t9
  401410:	00000000 	nop
  401414:	8fbc0018 	lw	gp,24(sp)
  401418:	00000000 	nop
  40141c:	8f998118 	lw	t9,-32488(gp)
  401420:	10400022 	beqz	v0,4014ac <main+0x2bc>
  401424:	02e02021 	move	a0,s7
  401428:	8e050000 	lw	a1,0(s0)
  40142c:	10000014 	b	401480 <main+0x290>
  401430:	00000000 	nop
  401434:	00a0c821 	move	t9,a1
  401438:	0320f809 	jalr	t9
  40143c:	00000000 	nop
  401440:	8fbc0018 	lw	gp,24(sp)
  401444:	24030001 	li	v1,1
  401448:	8f908018 	lw	s0,-32744(gp)
  40144c:	8f828018 	lw	v0,-32744(gp)
  401450:	8f998078 	lw	t9,-32648(gp)
  401454:	26103e88 	addiu	s0,s0,16008
  401458:	02002021 	move	a0,s0
  40145c:	00002821 	move	a1,zero
  401460:	ac433e84 	sw	v1,16004(v0)
  401464:	0320f809 	jalr	t9
  401468:	24060014 	li	a2,20
  40146c:	8fbc0018 	lw	gp,24(sp)
  401470:	02002021 	move	a0,s0
  401474:	8f8280c4 	lw	v0,-32572(gp)
  401478:	8f998118 	lw	t9,-32488(gp)
  40147c:	8c450000 	lw	a1,0(v0)
  401480:	0320f809 	jalr	t9
  401484:	00000000 	nop
  401488:	8fbc0018 	lw	gp,24(sp)
  40148c:	10000009 	b	4014b4 <main+0x2c4>
  401490:	00000000 	nop
  401494:	8f84801c 	lw	a0,-32740(gp)
  401498:	8f9980d4 	lw	t9,-32556(gp)
  40149c:	00000000 	nop
  4014a0:	0320f809 	jalr	t9
  4014a4:	2484356c 	addiu	a0,a0,13676
  4014a8:	8fbc0018 	lw	gp,24(sp)
  4014ac:	10000011 	b	4014f4 <main+0x304>
  4014b0:	00002021 	move	a0,zero
  4014b4:	8f86801c 	lw	a2,-32740(gp)
  4014b8:	8f99807c 	lw	t9,-32644(gp)
  4014bc:	24c635a4 	addiu	a2,a2,13732
  4014c0:	02602021 	move	a0,s3
  4014c4:	8f9080c4 	lw	s0,-32572(gp)
  4014c8:	0320f809 	jalr	t9
  4014cc:	02202821 	move	a1,s1
  4014d0:	8fbc0018 	lw	gp,24(sp)
  4014d4:	00401821 	move	v1,v0
  4014d8:	8f84801c 	lw	a0,-32740(gp)
  4014dc:	28460054 	slti	a2,v0,84
  4014e0:	2402ffff 	li	v0,-1
  4014e4:	8f998110 	lw	t9,-32496(gp)
  4014e8:	1462ffa3 	bne	v1,v0,401378 <main+0x188>
  4014ec:	248435ac 	addiu	a0,a0,13740
  4014f0:	24040001 	li	a0,1
  4014f4:	10800517 	beqz	a0,402954 <main+0x1764>
  4014f8:	2403ffff 	li	v1,-1
  4014fc:	8f82801c 	lw	v0,-32740(gp)
  401500:	8f85801c 	lw	a1,-32740(gp)
  401504:	245035b4 	addiu	s0,v0,13748
  401508:	8f998080 	lw	t9,-32640(gp)
  40150c:	24a535c8 	addiu	a1,a1,13768
  401510:	0320f809 	jalr	t9
  401514:	02002021 	move	a0,s0
  401518:	8fbc0018 	lw	gp,24(sp)
  40151c:	10400007 	beqz	v0,40153c <main+0x34c>
  401520:	00000000 	nop
  401524:	8f99806c 	lw	t9,-32660(gp)
  401528:	00000000 	nop
  40152c:	0320f809 	jalr	t9
  401530:	00402021 	move	a0,v0
  401534:	10000006 	b	401550 <main+0x360>
  401538:	00000000 	nop
  40153c:	8f84801c 	lw	a0,-32740(gp)
  401540:	8f998110 	lw	t9,-32496(gp)
  401544:	248435cc 	addiu	a0,a0,13772
  401548:	0320f809 	jalr	t9
  40154c:	02002821 	move	a1,s0
  401550:	8fbc0018 	lw	gp,24(sp)
  401554:	00000000 	nop
  401558:	8f928018 	lw	s2,-32744(gp)
  40155c:	00000000 	nop
  401560:	8e423e84 	lw	v0,16004(s2)
  401564:	00000000 	nop
  401568:	1440000e 	bnez	v0,4015a4 <main+0x3b4>
  40156c:	00000000 	nop
  401570:	8f99808c 	lw	t9,-32628(gp)
  401574:	00000000 	nop
  401578:	0320f809 	jalr	t9
  40157c:	00000000 	nop
  401580:	8fbc0018 	lw	gp,24(sp)
  401584:	104004f3 	beqz	v0,402954 <main+0x1764>
  401588:	00001821 	move	v1,zero
  40158c:	04410005 	bgez	v0,4015a4 <main+0x3b4>
  401590:	00000000 	nop
  401594:	8f84801c 	lw	a0,-32740(gp)
  401598:	8f9980d4 	lw	t9,-32556(gp)
  40159c:	10000026 	b	401638 <main+0x448>
  4015a0:	248435f0 	addiu	a0,a0,13808
  4015a4:	8f90801c 	lw	s0,-32740(gp)
  4015a8:	8f998094 	lw	t9,-32620(gp)
  4015ac:	2404000f 	li	a0,15
  4015b0:	0320f809 	jalr	t9
  4015b4:	26052988 	addiu	a1,s0,10632
  4015b8:	8fbc0018 	lw	gp,24(sp)
  4015bc:	26052988 	addiu	a1,s0,10632
  4015c0:	8f998094 	lw	t9,-32620(gp)
  4015c4:	00000000 	nop
  4015c8:	0320f809 	jalr	t9
  4015cc:	24040002 	li	a0,2
  4015d0:	8fbc0018 	lw	gp,24(sp)
  4015d4:	2404000d 	li	a0,13
  4015d8:	8f998094 	lw	t9,-32620(gp)
  4015dc:	00000000 	nop
  4015e0:	0320f809 	jalr	t9
  4015e4:	24050001 	li	a1,1
  4015e8:	8fbc0018 	lw	gp,24(sp)
  4015ec:	24040001 	li	a0,1
  4015f0:	8f998094 	lw	t9,-32620(gp)
  4015f4:	00000000 	nop
  4015f8:	0320f809 	jalr	t9
  4015fc:	24050001 	li	a1,1
  401600:	8fbc0018 	lw	gp,24(sp)
  401604:	00000000 	nop
  401608:	8f84801c 	lw	a0,-32740(gp)
  40160c:	8f85801c 	lw	a1,-32740(gp)
  401610:	8f998080 	lw	t9,-32640(gp)
  401614:	248435fc 	addiu	a0,a0,13820
  401618:	0320f809 	jalr	t9
  40161c:	24a53614 	addiu	a1,a1,13844
  401620:	8fbc0018 	lw	gp,24(sp)
  401624:	14400009 	bnez	v0,40164c <main+0x45c>
  401628:	00408821 	move	s1,v0
  40162c:	8f84801c 	lw	a0,-32740(gp)
  401630:	8f9980d4 	lw	t9,-32556(gp)
  401634:	24843618 	addiu	a0,a0,13848
  401638:	0320f809 	jalr	t9
  40163c:	00000000 	nop
  401640:	8fbc0018 	lw	gp,24(sp)
  401644:	100004c3 	b	402954 <main+0x1764>
  401648:	2403ffff 	li	v1,-1
  40164c:	8f9980f8 	lw	t9,-32520(gp)
  401650:	00000000 	nop
  401654:	0320f809 	jalr	t9
  401658:	27b00138 	addiu	s0,sp,312
  40165c:	8fbc0018 	lw	gp,24(sp)
  401660:	00403021 	move	a2,v0
  401664:	8f85801c 	lw	a1,-32740(gp)
  401668:	8f9980a0 	lw	t9,-32608(gp)
  40166c:	24a538fc 	addiu	a1,a1,14588
  401670:	0320f809 	jalr	t9
  401674:	02202021 	move	a0,s1
  401678:	8fbc0018 	lw	gp,24(sp)
  40167c:	00000000 	nop
  401680:	8f99806c 	lw	t9,-32660(gp)
  401684:	00000000 	nop
  401688:	0320f809 	jalr	t9
  40168c:	02202021 	move	a0,s1
  401690:	8fbc0018 	lw	gp,24(sp)
  401694:	00000000 	nop
  401698:	8f9980e0 	lw	t9,-32544(gp)
  40169c:	00000000 	nop
  4016a0:	0320f809 	jalr	t9
  4016a4:	00000000 	nop
  4016a8:	8fbc0018 	lw	gp,24(sp)
  4016ac:	27a50020 	addiu	a1,sp,32
  4016b0:	8f84801c 	lw	a0,-32740(gp)
  4016b4:	8f998110 	lw	t9,-32496(gp)
  4016b8:	00000000 	nop
  4016bc:	0320f809 	jalr	t9
  4016c0:	24843630 	addiu	a0,a0,13872
  4016c4:	8fbc0018 	lw	gp,24(sp)
  4016c8:	24040002 	li	a0,2
  4016cc:	8f9980c0 	lw	t9,-32576(gp)
  4016d0:	24050002 	li	a1,2
  4016d4:	0320f809 	jalr	t9
  4016d8:	00003021 	move	a2,zero
  4016dc:	8fbc0018 	lw	gp,24(sp)
  4016e0:	00002821 	move	a1,zero
  4016e4:	8f998078 	lw	t9,-32648(gp)
  4016e8:	24060010 	li	a2,16
  4016ec:	02002021 	move	a0,s0
  4016f0:	0320f809 	jalr	t9
  4016f4:	0040f021 	move	s8,v0
  4016f8:	8fbc0018 	lw	gp,24(sp)
  4016fc:	24020002 	li	v0,2
  401700:	8f99809c 	lw	t9,-32612(gp)
  401704:	27a40020 	addiu	a0,sp,32
  401708:	0320f809 	jalr	t9
  40170c:	a7a20138 	sh	v0,312(sp)
  401710:	8fbc0018 	lw	gp,24(sp)
  401714:	afa2013c 	sw	v0,316(sp)
  401718:	8f99810c 	lw	t9,-32500(gp)
  40171c:	3402dcff 	li	v0,0xdcff
  401720:	03c02021 	move	a0,s8
  401724:	a7a2013a 	sh	v0,314(sp)
  401728:	02002821 	move	a1,s0
  40172c:	0320f809 	jalr	t9
  401730:	24060010 	li	a2,16
  401734:	2403ffff 	li	v1,-1
  401738:	8fbc0018 	lw	gp,24(sp)
  40173c:	1443000b 	bne	v0,v1,40176c <main+0x57c>
  401740:	24040001 	li	a0,1
  401744:	8f84801c 	lw	a0,-32740(gp)
  401748:	8f9980dc 	lw	t9,-32548(gp)
  40174c:	00000000 	nop
  401750:	0320f809 	jalr	t9
  401754:	2484364c 	addiu	a0,a0,13900
  401758:	8fbc0018 	lw	gp,24(sp)
  40175c:	24030065 	li	v1,101
  401760:	8f828018 	lw	v0,-32744(gp)
  401764:	00002021 	move	a0,zero
  401768:	ac433e80 	sw	v1,16000(v0)
  40176c:	10800442 	beqz	a0,402878 <main+0x1688>
  401770:	00000000 	nop
  401774:	8e423e84 	lw	v0,16004(s2)
  401778:	00000000 	nop
  40177c:	1440000e 	bnez	v0,4017b8 <main+0x5c8>
  401780:	00000000 	nop
  401784:	8f84801c 	lw	a0,-32740(gp)
  401788:	8f998110 	lw	t9,-32496(gp)
  40178c:	24843654 	addiu	a0,a0,13908
  401790:	0320f809 	jalr	t9
  401794:	24050001 	li	a1,1
  401798:	8fbc0018 	lw	gp,24(sp)
  40179c:	00000000 	nop
  4017a0:	8f9980c8 	lw	t9,-32568(gp)
  4017a4:	00000000 	nop
  4017a8:	0320f809 	jalr	t9
  4017ac:	24040001 	li	a0,1
  4017b0:	8fbc0018 	lw	gp,24(sp)
  4017b4:	00000000 	nop
  4017b8:	8f90801c 	lw	s0,-32740(gp)
  4017bc:	8f84801c 	lw	a0,-32740(gp)
  4017c0:	8f998110 	lw	t9,-32496(gp)
  4017c4:	2484368c 	addiu	a0,a0,13964
  4017c8:	0320f809 	jalr	t9
  4017cc:	26053674 	addiu	a1,s0,13940
  4017d0:	8fbc0018 	lw	gp,24(sp)
  4017d4:	26043674 	addiu	a0,s0,13940
  4017d8:	8f85801c 	lw	a1,-32740(gp)
  4017dc:	8f998080 	lw	t9,-32640(gp)
  4017e0:	00000000 	nop
  4017e4:	0320f809 	jalr	t9
  4017e8:	24a53544 	addiu	a1,a1,13636
  4017ec:	8fbc0018 	lw	gp,24(sp)
  4017f0:	14400011 	bnez	v0,401838 <main+0x648>
  4017f4:	00409821 	move	s3,v0
  4017f8:	8f84801c 	lw	a0,-32740(gp)
  4017fc:	8f998110 	lw	t9,-32496(gp)
  401800:	248436a8 	addiu	a0,a0,13992
  401804:	0320f809 	jalr	t9
  401808:	26053674 	addiu	a1,s0,13940
  40180c:	8fbc0018 	lw	gp,24(sp)
  401810:	10000409 	b	402838 <main+0x1648>
  401814:	24030066 	li	v1,102
  401818:	8f84801c 	lw	a0,-32740(gp)
  40181c:	8f998110 	lw	t9,-32496(gp)
  401820:	ae823e80 	sw	v0,16000(s4)
  401824:	248436d0 	addiu	a0,a0,14032
  401828:	0320f809 	jalr	t9
  40182c:	02402821 	move	a1,s2
  401830:	100003fd 	b	402828 <main+0x1638>
  401834:	00000000 	nop
  401838:	8f998078 	lw	t9,-32648(gp)
  40183c:	27a40148 	addiu	a0,sp,328
  401840:	00002821 	move	a1,zero
  401844:	24060080 	li	a2,128
  401848:	10000032 	b	401914 <main+0x724>
  40184c:	0000a021 	move	s4,zero
  401850:	0320f809 	jalr	t9
  401854:	afa001c8 	sw	zero,456(sp)
  401858:	8fbc0018 	lw	gp,24(sp)
  40185c:	afb00010 	sw	s0,16(sp)
  401860:	8f85801c 	lw	a1,-32740(gp)
  401864:	8f998088 	lw	t9,-32632(gp)
  401868:	24a536e4 	addiu	a1,a1,14052
  40186c:	02202021 	move	a0,s1
  401870:	27a60858 	addiu	a2,sp,2136
  401874:	0320f809 	jalr	t9
  401878:	27a7085c 	addiu	a3,sp,2140
  40187c:	8fbc0018 	lw	gp,24(sp)
  401880:	18400020 	blez	v0,401904 <main+0x714>
  401884:	00000000 	nop
  401888:	8fa2085c 	lw	v0,2140(sp)
  40188c:	8fa30858 	lw	v1,2136(sp)
  401890:	24420001 	addiu	v0,v0,1
  401894:	a7a201ca 	sh	v0,458(sp)
  401898:	3064ffff 	andi	a0,v1,0xffff
  40189c:	24020009 	li	v0,9
  4018a0:	1482000b 	bne	a0,v0,4018d0 <main+0x6e0>
  4018a4:	a7a301c8 	sh	v1,456(sp)
  4018a8:	8f858018 	lw	a1,-32744(gp)
  4018ac:	8e423e84 	lw	v0,16004(s2)
  4018b0:	8f998118 	lw	t9,-32488(gp)
  4018b4:	24a53e88 	addiu	a1,a1,16008
  4018b8:	10400005 	beqz	v0,4018d0 <main+0x6e0>
  4018bc:	02002021 	move	a0,s0
  4018c0:	0320f809 	jalr	t9
  4018c4:	00000000 	nop
  4018c8:	8fbc0018 	lw	gp,24(sp)
  4018cc:	00000000 	nop
  4018d0:	8f99801c 	lw	t9,-32740(gp)
  4018d4:	8f868104 	lw	a2,-32508(gp)
  4018d8:	02002821 	move	a1,s0
  4018dc:	2739102c 	addiu	t9,t9,4140
  4018e0:	0320f809 	jalr	t9
  4018e4:	27a401c8 	addiu	a0,sp,456
  4018e8:	8fbc0018 	lw	gp,24(sp)
  4018ec:	104003e2 	beqz	v0,402878 <main+0x1688>
  4018f0:	00000000 	nop
  4018f4:	97a201ca 	lhu	v0,458(sp)
  4018f8:	00000000 	nop
  4018fc:	02821021 	addu	v0,s4,v0
  401900:	24540004 	addiu	s4,v0,4
  401904:	8f998078 	lw	t9,-32648(gp)
  401908:	02202021 	move	a0,s1
  40190c:	00002821 	move	a1,zero
  401910:	24060080 	li	a2,128
  401914:	0320f809 	jalr	t9
  401918:	00000000 	nop
  40191c:	8fbc0018 	lw	gp,24(sp)
  401920:	27b10148 	addiu	s1,sp,328
  401924:	8f9980e8 	lw	t9,-32536(gp)
  401928:	02202021 	move	a0,s1
  40192c:	24050080 	li	a1,128
  401930:	0320f809 	jalr	t9
  401934:	02603021 	move	a2,s3
  401938:	8fbc0018 	lw	gp,24(sp)
  40193c:	27b001d0 	addiu	s0,sp,464
  401940:	8f998078 	lw	t9,-32648(gp)
  401944:	02002021 	move	a0,s0
  401948:	00002821 	move	a1,zero
  40194c:	1440ffc0 	bnez	v0,401850 <main+0x660>
  401950:	24060080 	li	a2,128
  401954:	8f998040 	lw	t9,-32704(gp)
  401958:	2402000d 	li	v0,13
  40195c:	afa001c8 	sw	zero,456(sp)
  401960:	02e02021 	move	a0,s7
  401964:	0320f809 	jalr	t9
  401968:	a7a201c8 	sh	v0,456(sp)
  40196c:	8fbc0018 	lw	gp,24(sp)
  401970:	27b101c8 	addiu	s1,sp,456
  401974:	8f83801c 	lw	v1,-32740(gp)
  401978:	8f868104 	lw	a2,-32508(gp)
  40197c:	2472102c 	addiu	s2,v1,4140
  401980:	24420001 	addiu	v0,v0,1
  401984:	02202021 	move	a0,s1
  401988:	02e02821 	move	a1,s7
  40198c:	0240c821 	move	t9,s2
  401990:	0320f809 	jalr	t9
  401994:	a7a201ca 	sh	v0,458(sp)
  401998:	8fbc0018 	lw	gp,24(sp)
  40199c:	2402000e 	li	v0,14
  4019a0:	8f868104 	lw	a2,-32508(gp)
  4019a4:	97b001ca 	lhu	s0,458(sp)
  4019a8:	02202021 	move	a0,s1
  4019ac:	afa001c8 	sw	zero,456(sp)
  4019b0:	00002821 	move	a1,zero
  4019b4:	0240c821 	move	t9,s2
  4019b8:	a7a201c8 	sh	v0,456(sp)
  4019bc:	0320f809 	jalr	t9
  4019c0:	a7a001ca 	sh	zero,458(sp)
  4019c4:	8fbc0018 	lw	gp,24(sp)
  4019c8:	02908021 	addu	s0,s4,s0
  4019cc:	26140008 	addiu	s4,s0,8
  4019d0:	8f99806c 	lw	t9,-32660(gp)
  4019d4:	afb4086c 	sw	s4,2156(sp)
  4019d8:	0320f809 	jalr	t9
  4019dc:	02602021 	move	a0,s3
  4019e0:	8fb4086c 	lw	s4,2156(sp)
  4019e4:	8fbc0018 	lw	gp,24(sp)
  4019e8:	128003a3 	beqz	s4,402878 <main+0x1688>
  4019ec:	24020005 	li	v0,5
  4019f0:	8f9980a4 	lw	t9,-32604(gp)
  4019f4:	00000000 	nop
  4019f8:	0320f809 	jalr	t9
  4019fc:	afa20870 	sw	v0,2160(sp)
  401a00:	8fbc0018 	lw	gp,24(sp)
  401a04:	2413001e 	li	s3,30
  401a08:	8f84801c 	lw	a0,-32740(gp)
  401a0c:	8f9980d4 	lw	t9,-32556(gp)
  401a10:	00000000 	nop
  401a14:	0320f809 	jalr	t9
  401a18:	24843700 	addiu	a0,a0,14080
  401a1c:	8fbc0018 	lw	gp,24(sp)
  401a20:	00000000 	nop
  401a24:	8f9980a8 	lw	t9,-32600(gp)
  401a28:	00000000 	nop
  401a2c:	0320f809 	jalr	t9
  401a30:	a3a00253 	sb	zero,595(sp)
  401a34:	3c0700ff 	lui	a3,0xff
  401a38:	00471824 	and	v1,v0,a3
  401a3c:	8fa6086c 	lw	a2,2156(sp)
  401a40:	3c08ff00 	lui	t0,0xff00
  401a44:	8fa9086c 	lw	t1,2156(sp)
  401a48:	00031a02 	srl	v1,v1,0x8
  401a4c:	00022e02 	srl	a1,v0,0x18
  401a50:	3044ff00 	andi	a0,v0,0xff00
  401a54:	00a32825 	or	a1,a1,v1
  401a58:	00042200 	sll	a0,a0,0x8
  401a5c:	00c81824 	and	v1,a2,t0
  401a60:	00c73024 	and	a2,a2,a3
  401a64:	00063202 	srl	a2,a2,0x8
  401a68:	00a42825 	or	a1,a1,a0
  401a6c:	00021600 	sll	v0,v0,0x18
  401a70:	3124ff00 	andi	a0,t1,0xff00
  401a74:	00031e02 	srl	v1,v1,0x18
  401a78:	8fbc0018 	lw	gp,24(sp)
  401a7c:	00661825 	or	v1,v1,a2
  401a80:	00a22825 	or	a1,a1,v0
  401a84:	00042200 	sll	a0,a0,0x8
  401a88:	8fa20250 	lw	v0,592(sp)
  401a8c:	34e7ffff 	ori	a3,a3,0xffff
  401a90:	00641825 	or	v1,v1,a0
  401a94:	00092600 	sll	a0,t1,0x18
  401a98:	00a72824 	and	a1,a1,a3
  401a9c:	00641825 	or	v1,v1,a0
  401aa0:	00481024 	and	v0,v0,t0
  401aa4:	8f84801c 	lw	a0,-32740(gp)
  401aa8:	8f9980d4 	lw	t9,-32556(gp)
  401aac:	00451025 	or	v0,v0,a1
  401ab0:	afa30258 	sw	v1,600(sp)
  401ab4:	24843720 	addiu	a0,a0,14112
  401ab8:	afa20250 	sw	v0,592(sp)
  401abc:	a7a00254 	sh	zero,596(sp)
  401ac0:	0320f809 	jalr	t9
  401ac4:	a7a00256 	sh	zero,598(sp)
  401ac8:	8fbc0018 	lw	gp,24(sp)
  401acc:	03c02021 	move	a0,s8
  401ad0:	8f9980b0 	lw	t9,-32592(gp)
  401ad4:	27a50250 	addiu	a1,sp,592
  401ad8:	2406000c 	li	a2,12
  401adc:	8f918104 	lw	s1,-32508(gp)
  401ae0:	0320f809 	jalr	t9
  401ae4:	00003821 	move	a3,zero
  401ae8:	8fbc0018 	lw	gp,24(sp)
  401aec:	0440000c 	bltz	v0,401b20 <main+0x930>
  401af0:	00000000 	nop
  401af4:	8f84801c 	lw	a0,-32740(gp)
  401af8:	8f9980d4 	lw	t9,-32556(gp)
  401afc:	00000000 	nop
  401b00:	0320f809 	jalr	t9
  401b04:	2484373c 	addiu	a0,a0,14140
  401b08:	8e250000 	lw	a1,0(s1)
  401b0c:	8fbc0018 	lw	gp,24(sp)
  401b10:	10b1003f 	beq	a1,s1,401c10 <main+0xa20>
  401b14:	24040001 	li	a0,1
  401b18:	1000000c 	b	401b4c <main+0x95c>
  401b1c:	00a08021 	move	s0,a1
  401b20:	8f84801c 	lw	a0,-32740(gp)
  401b24:	8f9980dc 	lw	t9,-32548(gp)
  401b28:	00000000 	nop
  401b2c:	0320f809 	jalr	t9
  401b30:	2484375c 	addiu	a0,a0,14172
  401b34:	8fbc0018 	lw	gp,24(sp)
  401b38:	24030068 	li	v1,104
  401b3c:	8f828018 	lw	v0,-32744(gp)
  401b40:	00002021 	move	a0,zero
  401b44:	10000032 	b	401c10 <main+0xa20>
  401b48:	ac433e80 	sw	v1,16000(v0)
  401b4c:	92050009 	lbu	a1,9(s0)
  401b50:	9206000b 	lbu	a2,11(s0)
  401b54:	9203000a 	lbu	v1,10(s0)
  401b58:	8f84801c 	lw	a0,-32740(gp)
  401b5c:	92020008 	lbu	v0,8(s0)
  401b60:	8f998110 	lw	t9,-32496(gp)
  401b64:	00052a00 	sll	a1,a1,0x8
  401b68:	00063200 	sll	a2,a2,0x8
  401b6c:	00c33025 	or	a2,a2,v1
  401b70:	00a22825 	or	a1,a1,v0
  401b74:	24843768 	addiu	a0,a0,14184
  401b78:	0320f809 	jalr	t9
  401b7c:	2607000c 	addiu	a3,s0,12
  401b80:	9206000b 	lbu	a2,11(s0)
  401b84:	92020009 	lbu	v0,9(s0)
  401b88:	9203000a 	lbu	v1,10(s0)
  401b8c:	92040008 	lbu	a0,8(s0)
  401b90:	00063200 	sll	a2,a2,0x8
  401b94:	00021200 	sll	v0,v0,0x8
  401b98:	00c33025 	or	a2,a2,v1
  401b9c:	00441025 	or	v0,v0,a0
  401ba0:	304300ff 	andi	v1,v0,0xff
  401ba4:	30c400ff 	andi	a0,a2,0xff
  401ba8:	8fbc0018 	lw	gp,24(sp)
  401bac:	00031a00 	sll	v1,v1,0x8
  401bb0:	00042200 	sll	a0,a0,0x8
  401bb4:	00062a02 	srl	a1,a2,0x8
  401bb8:	00021202 	srl	v0,v0,0x8
  401bbc:	00431025 	or	v0,v0,v1
  401bc0:	00a42825 	or	a1,a1,a0
  401bc4:	00052202 	srl	a0,a1,0x8
  401bc8:	00021a02 	srl	v1,v0,0x8
  401bcc:	8f9980b0 	lw	t9,-32592(gp)
  401bd0:	a204000b 	sb	a0,11(s0)
  401bd4:	a205000a 	sb	a1,10(s0)
  401bd8:	a2030009 	sb	v1,9(s0)
  401bdc:	a2020008 	sb	v0,8(s0)
  401be0:	24c60004 	addiu	a2,a2,4
  401be4:	26050008 	addiu	a1,s0,8
  401be8:	03c02021 	move	a0,s8
  401bec:	0320f809 	jalr	t9
  401bf0:	00003821 	move	a3,zero
  401bf4:	8fbc0018 	lw	gp,24(sp)
  401bf8:	0440ffc9 	bltz	v0,401b20 <main+0x930>
  401bfc:	00000000 	nop
  401c00:	8e100000 	lw	s0,0(s0)
  401c04:	00000000 	nop
  401c08:	1611ffd0 	bne	s0,s1,401b4c <main+0x95c>
  401c0c:	24040001 	li	a0,1
  401c10:	10800319 	beqz	a0,402878 <main+0x1688>
  401c14:	00000000 	nop
  401c18:	8f84801c 	lw	a0,-32740(gp)
  401c1c:	8f998110 	lw	t9,-32496(gp)
  401c20:	afbe0864 	sw	s8,2148(sp)
  401c24:	2484378c 	addiu	a0,a0,14220
  401c28:	0320f809 	jalr	t9
  401c2c:	02602821 	move	a1,s3
  401c30:	27a70270 	addiu	a3,sp,624
  401c34:	8fbc0018 	lw	gp,24(sp)
  401c38:	8fa60864 	lw	a2,2148(sp)
  401c3c:	27b20260 	addiu	s2,sp,608
  401c40:	00e01821 	move	v1,a3
  401c44:	2402001f 	li	v0,31
  401c48:	2442ffff 	addiu	v0,v0,-1
  401c4c:	ac600000 	sw	zero,0(v1)
  401c50:	0441fffd 	bgez	v0,401c48 <main+0xa58>
  401c54:	24630004 	addiu	v1,v1,4
  401c58:	00061942 	srl	v1,a2,0x5
  401c5c:	27b90020 	addiu	t9,sp,32
  401c60:	00031880 	sll	v1,v1,0x2
  401c64:	00791821 	addu	v1,v1,t9
  401c68:	8c640250 	lw	a0,592(v1)
  401c6c:	30c5001f 	andi	a1,a2,0x1f
  401c70:	24020001 	li	v0,1
  401c74:	00a21004 	sllv	v0,v0,a1
  401c78:	00822025 	or	a0,a0,v0
  401c7c:	8f9980bc 	lw	t9,-32580(gp)
  401c80:	27a202f0 	addiu	v0,sp,752
  401c84:	ac640250 	sw	a0,592(v1)
  401c88:	00e02821 	move	a1,a3
  401c8c:	24c40001 	addiu	a0,a2,1
  401c90:	afb302f0 	sw	s3,752(sp)
  401c94:	afa20010 	sw	v0,16(sp)
  401c98:	afa002f4 	sw	zero,756(sp)
  401c9c:	00003021 	move	a2,zero
  401ca0:	0320f809 	jalr	t9
  401ca4:	00003821 	move	a3,zero
  401ca8:	8fbc0018 	lw	gp,24(sp)
  401cac:	04410010 	bgez	v0,401cf0 <main+0xb00>
  401cb0:	27a30020 	addiu	v1,sp,32
  401cb4:	8f84801c 	lw	a0,-32740(gp)
  401cb8:	8f9980d4 	lw	t9,-32556(gp)
  401cbc:	00000000 	nop
  401cc0:	0320f809 	jalr	t9
  401cc4:	248437c0 	addiu	a0,a0,14272
  401cc8:	8fbc0018 	lw	gp,24(sp)
  401ccc:	24030069 	li	v1,105
  401cd0:	8f828018 	lw	v0,-32744(gp)
  401cd4:	8f84801c 	lw	a0,-32740(gp)
  401cd8:	8f9980dc 	lw	t9,-32548(gp)
  401cdc:	ac433e80 	sw	v1,16000(v0)
  401ce0:	0320f809 	jalr	t9
  401ce4:	248437c8 	addiu	a0,a0,14280
  401ce8:	1000001d 	b	401d60 <main+0xb70>
  401cec:	00000000 	nop
  401cf0:	8fa40864 	lw	a0,2148(sp)
  401cf4:	00000000 	nop
  401cf8:	00041142 	srl	v0,a0,0x5
  401cfc:	00021080 	sll	v0,v0,0x2
  401d00:	00431021 	addu	v0,v0,v1
  401d04:	8c420250 	lw	v0,592(v0)
  401d08:	3083001f 	andi	v1,a0,0x1f
  401d0c:	00621006 	srlv	v0,v0,v1
  401d10:	30420001 	andi	v0,v0,0x1
  401d14:	14400005 	bnez	v0,401d2c <main+0xb3c>
  401d18:	00000000 	nop
  401d1c:	8f84801c 	lw	a0,-32740(gp)
  401d20:	8f9980d4 	lw	t9,-32556(gp)
  401d24:	1000000c 	b	401d58 <main+0xb68>
  401d28:	248437d0 	addiu	a0,a0,14288
  401d2c:	8f998114 	lw	t9,-32492(gp)
  401d30:	2405467f 	li	a1,18047
  401d34:	0320f809 	jalr	t9
  401d38:	27a60860 	addiu	a2,sp,2144
  401d3c:	8fa20860 	lw	v0,2144(sp)
  401d40:	8fbc0018 	lw	gp,24(sp)
  401d44:	14400009 	bnez	v0,401d6c <main+0xb7c>
  401d48:	00000000 	nop
  401d4c:	8f84801c 	lw	a0,-32740(gp)
  401d50:	8f9980d4 	lw	t9,-32556(gp)
  401d54:	248437f8 	addiu	a0,a0,14328
  401d58:	0320f809 	jalr	t9
  401d5c:	00000000 	nop
  401d60:	8fbc0018 	lw	gp,24(sp)
  401d64:	10000060 	b	401ee8 <main+0xcf8>
  401d68:	00002021 	move	a0,zero
  401d6c:	8f9980fc 	lw	t9,-32516(gp)
  401d70:	27a40864 	addiu	a0,sp,2148
  401d74:	02402821 	move	a1,s2
  401d78:	0320f809 	jalr	t9
  401d7c:	2406000c 	li	a2,12
  401d80:	8fbc0018 	lw	gp,24(sp)
  401d84:	0441000c 	bgez	v0,401db8 <main+0xbc8>
  401d88:	00000000 	nop
  401d8c:	8f84801c 	lw	a0,-32740(gp)
  401d90:	8f9980dc 	lw	t9,-32548(gp)
  401d94:	00000000 	nop
  401d98:	0320f809 	jalr	t9
  401d9c:	24843510 	addiu	a0,a0,13584
  401da0:	8fbc0018 	lw	gp,24(sp)
  401da4:	2403006a 	li	v1,106
  401da8:	8f828018 	lw	v0,-32744(gp)
  401dac:	00002021 	move	a0,zero
  401db0:	1000004d 	b	401ee8 <main+0xcf8>
  401db4:	ac433e80 	sw	v1,16000(v0)
  401db8:	8f84801c 	lw	a0,-32740(gp)
  401dbc:	8f998110 	lw	t9,-32496(gp)
  401dc0:	24843810 	addiu	a0,a0,14352
  401dc4:	0320f809 	jalr	t9
  401dc8:	00402821 	move	a1,v0
  401dcc:	8fbc0018 	lw	gp,24(sp)
  401dd0:	92450003 	lbu	a1,3(s2)
  401dd4:	8f84801c 	lw	a0,-32740(gp)
  401dd8:	8f998110 	lw	t9,-32496(gp)
  401ddc:	00000000 	nop
  401de0:	0320f809 	jalr	t9
  401de4:	24843824 	addiu	a0,a0,14372
  401de8:	92420001 	lbu	v0,1(s2)
  401dec:	92430000 	lbu	v1,0(s2)
  401df0:	92450002 	lbu	a1,2(s2)
  401df4:	00021200 	sll	v0,v0,0x8
  401df8:	00431025 	or	v0,v0,v1
  401dfc:	00052c00 	sll	a1,a1,0x10
  401e00:	8fbc0018 	lw	gp,24(sp)
  401e04:	00a22825 	or	a1,a1,v0
  401e08:	3c1000ff 	lui	s0,0xff
  401e0c:	00b01824 	and	v1,a1,s0
  401e10:	30a2ff00 	andi	v0,a1,0xff00
  401e14:	8f84801c 	lw	a0,-32740(gp)
  401e18:	00021200 	sll	v0,v0,0x8
  401e1c:	00031a02 	srl	v1,v1,0x8
  401e20:	8f998110 	lw	t9,-32496(gp)
  401e24:	00621825 	or	v1,v1,v0
  401e28:	00052e00 	sll	a1,a1,0x18
  401e2c:	00652825 	or	a1,v1,a1
  401e30:	0320f809 	jalr	t9
  401e34:	24843838 	addiu	a0,a0,14392
  401e38:	92450005 	lbu	a1,5(s2)
  401e3c:	92420004 	lbu	v0,4(s2)
  401e40:	8fbc0018 	lw	gp,24(sp)
  401e44:	00052a00 	sll	a1,a1,0x8
  401e48:	00a22825 	or	a1,a1,v0
  401e4c:	8f84801c 	lw	a0,-32740(gp)
  401e50:	30a200ff 	andi	v0,a1,0xff
  401e54:	8f998110 	lw	t9,-32496(gp)
  401e58:	00021200 	sll	v0,v0,0x8
  401e5c:	00052a02 	srl	a1,a1,0x8
  401e60:	00a22825 	or	a1,a1,v0
  401e64:	0320f809 	jalr	t9
  401e68:	24843850 	addiu	a0,a0,14416
  401e6c:	92450007 	lbu	a1,7(s2)
  401e70:	92420006 	lbu	v0,6(s2)
  401e74:	8fbc0018 	lw	gp,24(sp)
  401e78:	00052a00 	sll	a1,a1,0x8
  401e7c:	00a22825 	or	a1,a1,v0
  401e80:	8f84801c 	lw	a0,-32740(gp)
  401e84:	30a200ff 	andi	v0,a1,0xff
  401e88:	8f998110 	lw	t9,-32496(gp)
  401e8c:	00021200 	sll	v0,v0,0x8
  401e90:	00052a02 	srl	a1,a1,0x8
  401e94:	00a22825 	or	a1,a1,v0
  401e98:	0320f809 	jalr	t9
  401e9c:	24843864 	addiu	a0,a0,14436
  401ea0:	8a45000b 	lwl	a1,11(s2)
  401ea4:	8fbc0018 	lw	gp,24(sp)
  401ea8:	9a450008 	lwr	a1,8(s2)
  401eac:	8f84801c 	lw	a0,-32740(gp)
  401eb0:	00b08024 	and	s0,a1,s0
  401eb4:	00051e02 	srl	v1,a1,0x18
  401eb8:	30a2ff00 	andi	v0,a1,0xff00
  401ebc:	00108202 	srl	s0,s0,0x8
  401ec0:	00021200 	sll	v0,v0,0x8
  401ec4:	00701825 	or	v1,v1,s0
  401ec8:	8f998110 	lw	t9,-32496(gp)
  401ecc:	00621825 	or	v1,v1,v0
  401ed0:	00052e00 	sll	a1,a1,0x18
  401ed4:	2484387c 	addiu	a0,a0,14460
  401ed8:	0320f809 	jalr	t9
  401edc:	00652825 	or	a1,v1,a1
  401ee0:	8fbc0018 	lw	gp,24(sp)
  401ee4:	24040001 	li	a0,1
  401ee8:	14800009 	bnez	a0,401f10 <main+0xd20>
  401eec:	00000000 	nop
  401ef0:	8f828018 	lw	v0,-32744(gp)
  401ef4:	00000000 	nop
  401ef8:	8c423e80 	lw	v0,16000(v0)
  401efc:	00000000 	nop
  401f00:	1440025d 	bnez	v0,402878 <main+0x1688>
  401f04:	00000000 	nop
  401f08:	10000256 	b	402864 <main+0x1674>
  401f0c:	2413001e 	li	s3,30
  401f10:	97a20264 	lhu	v0,612(sp)
  401f14:	00000000 	nop
  401f18:	304300ff 	andi	v1,v0,0xff
  401f1c:	00031a00 	sll	v1,v1,0x8
  401f20:	00021202 	srl	v0,v0,0x8
  401f24:	00438825 	or	s1,v0,v1
  401f28:	24020001 	li	v0,1
  401f2c:	12220005 	beq	s1,v0,401f44 <main+0xd54>
  401f30:	24020002 	li	v0,2
  401f34:	12220212 	beq	s1,v0,402780 <main+0x1590>
  401f38:	00000000 	nop
  401f3c:	10000241 	b	402844 <main+0x1654>
  401f40:	00000000 	nop
  401f44:	8f84801c 	lw	a0,-32740(gp)
  401f48:	8f9980d4 	lw	t9,-32556(gp)
  401f4c:	00000000 	nop
  401f50:	0320f809 	jalr	t9
  401f54:	24843898 	addiu	a0,a0,14488
  401f58:	8fbc0018 	lw	gp,24(sp)
  401f5c:	00000000 	nop
  401f60:	8f84801c 	lw	a0,-32740(gp)
  401f64:	8f9980d4 	lw	t9,-32556(gp)
  401f68:	00000000 	nop
  401f6c:	0320f809 	jalr	t9
  401f70:	248438b4 	addiu	a0,a0,14516
  401f74:	8a43000b 	lwl	v1,11(s2)
  401f78:	8fbc0018 	lw	gp,24(sp)
  401f7c:	9a430008 	lwr	v1,8(s2)
  401f80:	00000000 	nop
  401f84:	00032202 	srl	a0,v1,0x8
  401f88:	00032e02 	srl	a1,v1,0x18
  401f8c:	3062ff00 	andi	v0,v1,0xff00
  401f90:	3084ff00 	andi	a0,a0,0xff00
  401f94:	00a42825 	or	a1,a1,a0
  401f98:	00021200 	sll	v0,v0,0x8
  401f9c:	00a22825 	or	a1,a1,v0
  401fa0:	00031e00 	sll	v1,v1,0x18
  401fa4:	00a3a025 	or	s4,a1,v1
  401fa8:	1a80013a 	blez	s4,402494 <main+0x12a4>
  401fac:	27b002f8 	addiu	s0,sp,760
  401fb0:	8f99801c 	lw	t9,-32740(gp)
  401fb4:	27b10300 	addiu	s1,sp,768
  401fb8:	03c02021 	move	a0,s8
  401fbc:	02002821 	move	a1,s0
  401fc0:	27390ee0 	addiu	t9,t9,3808
  401fc4:	0320f809 	jalr	t9
  401fc8:	02203021 	move	a2,s1
  401fcc:	8fbc0018 	lw	gp,24(sp)
  401fd0:	10400130 	beqz	v0,402494 <main+0x12a4>
  401fd4:	00403821 	move	a3,v0
  401fd8:	97a302f8 	lhu	v1,760(sp)
  401fdc:	34028105 	li	v0,0x8105
  401fe0:	0043102a 	slt	v0,v0,v1
  401fe4:	14400012 	bnez	v0,402030 <main+0xe40>
  401fe8:	0287a023 	subu	s4,s4,a3
  401fec:	34028101 	li	v0,0x8101
  401ff0:	0062102a 	slt	v0,v1,v0
  401ff4:	10400069 	beqz	v0,40219c <main+0xfac>
  401ff8:	34028001 	li	v0,0x8001
  401ffc:	0062102a 	slt	v0,v1,v0
  402000:	1440ffe9 	bnez	v0,401fa8 <main+0xdb8>
  402004:	34028005 	li	v0,0x8005
  402008:	0043102a 	slt	v0,v0,v1
  40200c:	1040002e 	beqz	v0,4020c8 <main+0xed8>
  402010:	3c02ffff 	lui	v0,0xffff
  402014:	34427ff9 	ori	v0,v0,0x7ff9
  402018:	00621021 	addu	v0,v1,v0
  40201c:	2c420007 	sltiu	v0,v0,7
  402020:	1040ffe1 	beqz	v0,401fa8 <main+0xdb8>
  402024:	00000000 	nop
  402028:	10000027 	b	4020c8 <main+0xed8>
  40202c:	00000000 	nop
  402030:	34028107 	li	v0,0x8107
  402034:	10620009 	beq	v1,v0,40205c <main+0xe6c>
  402038:	0062102a 	slt	v0,v1,v0
  40203c:	1440000b 	bnez	v0,40206c <main+0xe7c>
  402040:	34028108 	li	v0,0x8108
  402044:	10620032 	beq	v1,v0,402110 <main+0xf20>
  402048:	34028901 	li	v0,0x8901
  40204c:	1062001e 	beq	v1,v0,4020c8 <main+0xed8>
  402050:	00000000 	nop
  402054:	1000ffd4 	b	401fa8 <main+0xdb8>
  402058:	00000000 	nop
  40205c:	8f828018 	lw	v0,-32744(gp)
  402060:	24030001 	li	v1,1
  402064:	1000010b 	b	402494 <main+0x12a4>
  402068:	ac433e80 	sw	v1,16000(v0)
  40206c:	8f84801c 	lw	a0,-32740(gp)
  402070:	8f998110 	lw	t9,-32496(gp)
  402074:	00e03021 	move	a2,a3
  402078:	248438e0 	addiu	a0,a0,14560
  40207c:	0320f809 	jalr	t9
  402080:	02802821 	move	a1,s4
  402084:	8fbc0018 	lw	gp,24(sp)
  402088:	97a502f8 	lhu	a1,760(sp)
  40208c:	8f84801c 	lw	a0,-32740(gp)
  402090:	8f998110 	lw	t9,-32496(gp)
  402094:	97a602fa 	lhu	a2,762(sp)
  402098:	0320f809 	jalr	t9
  40209c:	24843900 	addiu	a0,a0,14592
  4020a0:	8fbc0018 	lw	gp,24(sp)
  4020a4:	00000000 	nop
  4020a8:	8f84801c 	lw	a0,-32740(gp)
  4020ac:	8f9980d4 	lw	t9,-32556(gp)
  4020b0:	00000000 	nop
  4020b4:	0320f809 	jalr	t9
  4020b8:	24843920 	addiu	a0,a0,14624
  4020bc:	8fbc0018 	lw	gp,24(sp)
  4020c0:	100000f4 	b	402494 <main+0x12a4>
  4020c4:	00000000 	nop
  4020c8:	8f84801c 	lw	a0,-32740(gp)
  4020cc:	8f998110 	lw	t9,-32496(gp)
  4020d0:	00e03021 	move	a2,a3
  4020d4:	248438e0 	addiu	a0,a0,14560
  4020d8:	0320f809 	jalr	t9
  4020dc:	02802821 	move	a1,s4
  4020e0:	8fbc0018 	lw	gp,24(sp)
  4020e4:	97a502f8 	lhu	a1,760(sp)
  4020e8:	8f84801c 	lw	a0,-32740(gp)
  4020ec:	8f998110 	lw	t9,-32496(gp)
  4020f0:	97a602fa 	lhu	a2,762(sp)
  4020f4:	0320f809 	jalr	t9
  4020f8:	24843900 	addiu	a0,a0,14592
  4020fc:	8fbc0018 	lw	gp,24(sp)
  402100:	02002021 	move	a0,s0
  402104:	8f868108 	lw	a2,-32504(gp)
  402108:	1000001a 	b	402174 <main+0xf84>
  40210c:	02202821 	move	a1,s1
  402110:	8f84801c 	lw	a0,-32740(gp)
  402114:	8f998110 	lw	t9,-32496(gp)
  402118:	00e03021 	move	a2,a3
  40211c:	248438e0 	addiu	a0,a0,14560
  402120:	0320f809 	jalr	t9
  402124:	02802821 	move	a1,s4
  402128:	8fbc0018 	lw	gp,24(sp)
  40212c:	97a502f8 	lhu	a1,760(sp)
  402130:	8f84801c 	lw	a0,-32740(gp)
  402134:	8f998110 	lw	t9,-32496(gp)
  402138:	97a602fa 	lhu	a2,762(sp)
  40213c:	0320f809 	jalr	t9
  402140:	24843900 	addiu	a0,a0,14592
  402144:	8fbc0018 	lw	gp,24(sp)
  402148:	02202021 	move	a0,s1
  40214c:	8f85801c 	lw	a1,-32740(gp)
  402150:	8f998068 	lw	t9,-32664(gp)
  402154:	00000000 	nop
  402158:	0320f809 	jalr	t9
  40215c:	24a53930 	addiu	a1,a1,14640
  402160:	8fbc0018 	lw	gp,24(sp)
  402164:	1440ff90 	bnez	v0,401fa8 <main+0xdb8>
  402168:	02002021 	move	a0,s0
  40216c:	8f868108 	lw	a2,-32504(gp)
  402170:	02202821 	move	a1,s1
  402174:	8f99801c 	lw	t9,-32740(gp)
  402178:	00000000 	nop
  40217c:	2739102c 	addiu	t9,t9,4140
  402180:	0320f809 	jalr	t9
  402184:	00000000 	nop
  402188:	8fbc0018 	lw	gp,24(sp)
  40218c:	1440ff86 	bnez	v0,401fa8 <main+0xdb8>
  402190:	00000000 	nop
  402194:	100000bf 	b	402494 <main+0x12a4>
  402198:	00000000 	nop
  40219c:	8a240047 	lwl	a0,71(s1)
  4021a0:	3c0600ff 	lui	a2,0xff
  4021a4:	9a240044 	lwr	a0,68(s1)
  4021a8:	8f998110 	lw	t9,-32496(gp)
  4021ac:	00862824 	and	a1,a0,a2
  4021b0:	00052a02 	srl	a1,a1,0x8
  4021b4:	00041602 	srl	v0,a0,0x18
  4021b8:	3083ff00 	andi	v1,a0,0xff00
  4021bc:	00451025 	or	v0,v0,a1
  4021c0:	00031a00 	sll	v1,v1,0x8
  4021c4:	00431025 	or	v0,v0,v1
  4021c8:	00042600 	sll	a0,a0,0x18
  4021cc:	00441025 	or	v0,v0,a0
  4021d0:	aa220047 	swl	v0,71(s1)
  4021d4:	ba220044 	swr	v0,68(s1)
  4021d8:	8a250043 	lwl	a1,67(s1)
  4021dc:	8f84801c 	lw	a0,-32740(gp)
  4021e0:	9a250040 	lwr	a1,64(s1)
  4021e4:	248438e0 	addiu	a0,a0,14560
  4021e8:	00a63024 	and	a2,a1,a2
  4021ec:	00063202 	srl	a2,a2,0x8
  4021f0:	00051602 	srl	v0,a1,0x18
  4021f4:	30a3ff00 	andi	v1,a1,0xff00
  4021f8:	00031a00 	sll	v1,v1,0x8
  4021fc:	00461025 	or	v0,v0,a2
  402200:	00431025 	or	v0,v0,v1
  402204:	00052e00 	sll	a1,a1,0x18
  402208:	00451025 	or	v0,v0,a1
  40220c:	aa220043 	swl	v0,67(s1)
  402210:	00e03021 	move	a2,a3
  402214:	02802821 	move	a1,s4
  402218:	0320f809 	jalr	t9
  40221c:	ba220040 	swr	v0,64(s1)
  402220:	8fbc0018 	lw	gp,24(sp)
  402224:	97a502f8 	lhu	a1,760(sp)
  402228:	8f84801c 	lw	a0,-32740(gp)
  40222c:	8f998110 	lw	t9,-32496(gp)
  402230:	97a602fa 	lhu	a2,762(sp)
  402234:	0320f809 	jalr	t9
  402238:	24843900 	addiu	a0,a0,14592
  40223c:	8fbc0018 	lw	gp,24(sp)
  402240:	8a260043 	lwl	a2,67(s1)
  402244:	8a270047 	lwl	a3,71(s1)
  402248:	8f84801c 	lw	a0,-32740(gp)
  40224c:	8f998110 	lw	t9,-32496(gp)
  402250:	9a260040 	lwr	a2,64(s1)
  402254:	9a270044 	lwr	a3,68(s1)
  402258:	24843938 	addiu	a0,a0,14648
  40225c:	0320f809 	jalr	t9
  402260:	02202821 	move	a1,s1
  402264:	8fbc0018 	lw	gp,24(sp)
  402268:	02002021 	move	a0,s0
  40226c:	8f99801c 	lw	t9,-32740(gp)
  402270:	8f868108 	lw	a2,-32504(gp)
  402274:	2739102c 	addiu	t9,t9,4140
  402278:	0320f809 	jalr	t9
  40227c:	02202821 	move	a1,s1
  402280:	8fbc0018 	lw	gp,24(sp)
  402284:	10400083 	beqz	v0,402494 <main+0x12a4>
  402288:	27b60380 	addiu	s6,sp,896
  40228c:	afbe0868 	sw	s8,2152(sp)
  402290:	8f85801c 	lw	a1,-32740(gp)
  402294:	8f99805c 	lw	t9,-32676(gp)
  402298:	8a300043 	lwl	s0,67(s1)
  40229c:	8a330047 	lwl	s3,71(s1)
  4022a0:	24a534e0 	addiu	a1,a1,13536
  4022a4:	02c02021 	move	a0,s6
  4022a8:	02e03021 	move	a2,s7
  4022ac:	9a300040 	lwr	s0,64(s1)
  4022b0:	9a330044 	lwr	s3,68(s1)
  4022b4:	0320f809 	jalr	t9
  4022b8:	02203821 	move	a3,s1
  4022bc:	8fbc0018 	lw	gp,24(sp)
  4022c0:	02c02021 	move	a0,s6
  4022c4:	8f85801c 	lw	a1,-32740(gp)
  4022c8:	8f998080 	lw	t9,-32640(gp)
  4022cc:	00000000 	nop
  4022d0:	0320f809 	jalr	t9
  4022d4:	24a534e8 	addiu	a1,a1,13544
  4022d8:	8fbc0018 	lw	gp,24(sp)
  4022dc:	14400004 	bnez	v0,4022f0 <main+0x1100>
  4022e0:	00409021 	move	s2,v0
  4022e4:	2403006c 	li	v1,108
  4022e8:	1000004f 	b	402428 <main+0x1238>
  4022ec:	afa00874 	sw	zero,2164(sp)
  4022f0:	1a00001d 	blez	s0,402368 <main+0x1178>
  4022f4:	27b503c0 	addiu	s5,sp,960
  4022f8:	2a020400 	slti	v0,s0,1024
  4022fc:	8f9980fc 	lw	t9,-32516(gp)
  402300:	27a40868 	addiu	a0,sp,2152
  402304:	02a02821 	move	a1,s5
  402308:	14400002 	bnez	v0,402314 <main+0x1124>
  40230c:	02003021 	move	a2,s0
  402310:	24060400 	li	a2,1024
  402314:	0320f809 	jalr	t9
  402318:	00000000 	nop
  40231c:	8fbc0018 	lw	gp,24(sp)
  402320:	02a02021 	move	a0,s5
  402324:	8f99804c 	lw	t9,-32692(gp)
  402328:	00403021 	move	a2,v0
  40232c:	24050001 	li	a1,1
  402330:	02403821 	move	a3,s2
  402334:	0440002f 	bltz	v0,4023f4 <main+0x1204>
  402338:	02028023 	subu	s0,s0,v0
  40233c:	0320f809 	jalr	t9
  402340:	00000000 	nop
  402344:	8fbc0018 	lw	gp,24(sp)
  402348:	00000000 	nop
  40234c:	8f9980b8 	lw	t9,-32584(gp)
  402350:	00000000 	nop
  402354:	0320f809 	jalr	t9
  402358:	02402021 	move	a0,s2
  40235c:	8fbc0018 	lw	gp,24(sp)
  402360:	1000ffe3 	b	4022f0 <main+0x1100>
  402364:	00000000 	nop
  402368:	8f99806c 	lw	t9,-32660(gp)
  40236c:	00000000 	nop
  402370:	0320f809 	jalr	t9
  402374:	02402021 	move	a0,s2
  402378:	8fbc0018 	lw	gp,24(sp)
  40237c:	00000000 	nop
  402380:	8f9980f4 	lw	t9,-32524(gp)
  402384:	00000000 	nop
  402388:	0320f809 	jalr	t9
  40238c:	02c02021 	move	a0,s6
  402390:	8fbc0018 	lw	gp,24(sp)
  402394:	00000000 	nop
  402398:	8f9980d4 	lw	t9,-32556(gp)
  40239c:	10530025 	beq	v0,s3,402434 <main+0x1244>
  4023a0:	27b007c0 	addiu	s0,sp,1984
  4023a4:	8f84801c 	lw	a0,-32740(gp)
  4023a8:	0320f809 	jalr	t9
  4023ac:	24843960 	addiu	a0,a0,14688
  4023b0:	8fbc0018 	lw	gp,24(sp)
  4023b4:	02002021 	move	a0,s0
  4023b8:	8f85801c 	lw	a1,-32740(gp)
  4023bc:	8f99805c 	lw	t9,-32676(gp)
  4023c0:	24a53970 	addiu	a1,a1,14704
  4023c4:	02e03021 	move	a2,s7
  4023c8:	0320f809 	jalr	t9
  4023cc:	02203821 	move	a3,s1
  4023d0:	8fbc0018 	lw	gp,24(sp)
  4023d4:	00000000 	nop
  4023d8:	8f9980d0 	lw	t9,-32560(gp)
  4023dc:	00000000 	nop
  4023e0:	0320f809 	jalr	t9
  4023e4:	02002021 	move	a0,s0
  4023e8:	8fbc0018 	lw	gp,24(sp)
  4023ec:	1000000e 	b	402428 <main+0x1238>
  4023f0:	2403006e 	li	v1,110
  4023f4:	8f84801c 	lw	a0,-32740(gp)
  4023f8:	8f9980dc 	lw	t9,-32548(gp)
  4023fc:	00000000 	nop
  402400:	0320f809 	jalr	t9
  402404:	24843978 	addiu	a0,a0,14712
  402408:	8fbc0018 	lw	gp,24(sp)
  40240c:	02402021 	move	a0,s2
  402410:	8f99806c 	lw	t9,-32660(gp)
  402414:	00000000 	nop
  402418:	0320f809 	jalr	t9
  40241c:	afa00874 	sw	zero,2164(sp)
  402420:	8fbc0018 	lw	gp,24(sp)
  402424:	2403006a 	li	v1,106
  402428:	8f828018 	lw	v0,-32744(gp)
  40242c:	10000007 	b	40244c <main+0x125c>
  402430:	ac433e80 	sw	v1,16000(v0)
  402434:	8f84801c 	lw	a0,-32740(gp)
  402438:	24060001 	li	a2,1
  40243c:	afa60874 	sw	a2,2164(sp)
  402440:	0320f809 	jalr	t9
  402444:	24843980 	addiu	a0,a0,14720
  402448:	8fbc0018 	lw	gp,24(sp)
  40244c:	8fa90874 	lw	t1,2164(sp)
  402450:	00000000 	nop
  402454:	312200ff 	andi	v0,t1,0xff
  402458:	1040000e 	beqz	v0,402494 <main+0x12a4>
  40245c:	00000000 	nop
  402460:	8a220043 	lwl	v0,67(s1)
  402464:	8a260043 	lwl	a2,67(s1)
  402468:	9a220040 	lwr	v0,64(s1)
  40246c:	8f84801c 	lw	a0,-32740(gp)
  402470:	0282a023 	subu	s4,s4,v0
  402474:	8f998110 	lw	t9,-32496(gp)
  402478:	9a260040 	lwr	a2,64(s1)
  40247c:	2484398c 	addiu	a0,a0,14732
  402480:	0320f809 	jalr	t9
  402484:	02802821 	move	a1,s4
  402488:	8fbc0018 	lw	gp,24(sp)
  40248c:	1000fec6 	b	401fa8 <main+0xdb8>
  402490:	00000000 	nop
  402494:	8f948018 	lw	s4,-32744(gp)
  402498:	24020001 	li	v0,1
  40249c:	8e833e80 	lw	v1,16000(s4)
  4024a0:	00000000 	nop
  4024a4:	14620003 	bne	v1,v0,4024b4 <main+0x12c4>
  4024a8:	24130005 	li	s3,5
  4024ac:	100000ed 	b	402864 <main+0x1674>
  4024b0:	ae803e80 	sw	zero,16000(s4)
  4024b4:	8f84801c 	lw	a0,-32740(gp)
  4024b8:	8f9980d4 	lw	t9,-32556(gp)
  4024bc:	00000000 	nop
  4024c0:	0320f809 	jalr	t9
  4024c4:	248439ac 	addiu	a0,a0,14764
  4024c8:	8fbc0018 	lw	gp,24(sp)
  4024cc:	00000000 	nop
  4024d0:	8f998108 	lw	t9,-32504(gp)
  4024d4:	00000000 	nop
  4024d8:	8f220000 	lw	v0,0(t9)
  4024dc:	00000000 	nop
  4024e0:	105900e5 	beq	v0,t9,402878 <main+0x1688>
  4024e4:	0320a821 	move	s5,t9
  4024e8:	8f84801c 	lw	a0,-32740(gp)
  4024ec:	8f9980d0 	lw	t9,-32560(gp)
  4024f0:	00000000 	nop
  4024f4:	0320f809 	jalr	t9
  4024f8:	248439dc 	addiu	a0,a0,14812
  4024fc:	8fbc0018 	lw	gp,24(sp)
  402500:	27a40840 	addiu	a0,sp,2112
  402504:	8f998078 	lw	t9,-32648(gp)
  402508:	00002821 	move	a1,zero
  40250c:	0320f809 	jalr	t9
  402510:	24060014 	li	a2,20
  402514:	8eb10000 	lw	s1,0(s5)
  402518:	8fbc0018 	lw	gp,24(sp)
  40251c:	00008021 	move	s0,zero
  402520:	00009821 	move	s3,zero
  402524:	123500d4 	beq	s1,s5,402878 <main+0x1688>
  402528:	00009021 	move	s2,zero
  40252c:	92240009 	lbu	a0,9(s1)
  402530:	92250008 	lbu	a1,8(s1)
  402534:	308200ff 	andi	v0,a0,0xff
  402538:	00021200 	sll	v0,v0,0x8
  40253c:	30a300ff 	andi	v1,a1,0xff
  402540:	00431825 	or	v1,v0,v1
  402544:	3402800d 	li	v0,0x800d
  402548:	0043102a 	slt	v0,v0,v1
  40254c:	14400015 	bnez	v0,4025a4 <main+0x13b4>
  402550:	34028105 	li	v0,0x8105
  402554:	34028007 	li	v0,0x8007
  402558:	0062102a 	slt	v0,v1,v0
  40255c:	10400022 	beqz	v0,4025e8 <main+0x13f8>
  402560:	34028004 	li	v0,0x8004
  402564:	10620026 	beq	v1,v0,402600 <main+0x1410>
  402568:	0043102a 	slt	v0,v0,v1
  40256c:	14400009 	bnez	v0,402594 <main+0x13a4>
  402570:	34028005 	li	v0,0x8005
  402574:	3c02ffff 	lui	v0,0xffff
  402578:	34427fff 	ori	v0,v0,0x7fff
  40257c:	00621021 	addu	v0,v1,v0
  402580:	2c420002 	sltiu	v0,v0,2
  402584:	10400051 	beqz	v0,4026cc <main+0x14dc>
  402588:	308400ff 	andi	a0,a0,0xff
  40258c:	10000018 	b	4025f0 <main+0x1400>
  402590:	30a200ff 	andi	v0,a1,0xff
  402594:	1062002a 	beq	v1,v0,402640 <main+0x1450>
  402598:	00000000 	nop
  40259c:	1000004b 	b	4026cc <main+0x14dc>
  4025a0:	00000000 	nop
  4025a4:	0043102a 	slt	v0,v0,v1
  4025a8:	1440000b 	bnez	v0,4025d8 <main+0x13e8>
  4025ac:	34028108 	li	v0,0x8108
  4025b0:	34028103 	li	v0,0x8103
  4025b4:	0062102a 	slt	v0,v1,v0
  4025b8:	10400030 	beqz	v0,40267c <main+0x148c>
  4025bc:	34028101 	li	v0,0x8101
  4025c0:	1062002e 	beq	v1,v0,40267c <main+0x148c>
  4025c4:	34028102 	li	v0,0x8102
  4025c8:	10620014 	beq	v1,v0,40261c <main+0x142c>
  4025cc:	2626000c 	addiu	a2,s1,12
  4025d0:	1000003e 	b	4026cc <main+0x14dc>
  4025d4:	00000000 	nop
  4025d8:	10620035 	beq	v1,v0,4026b0 <main+0x14c0>
  4025dc:	34028901 	li	v0,0x8901
  4025e0:	1462003a 	bne	v1,v0,4026cc <main+0x14dc>
  4025e4:	00000000 	nop
  4025e8:	308400ff 	andi	a0,a0,0xff
  4025ec:	30a200ff 	andi	v0,a1,0xff
  4025f0:	00042200 	sll	a0,a0,0x8
  4025f4:	8f998054 	lw	t9,-32684(gp)
  4025f8:	10000003 	b	402608 <main+0x1418>
  4025fc:	00822025 	or	a0,a0,v0
  402600:	8f998070 	lw	t9,-32656(gp)
  402604:	34048004 	li	a0,0x8004
  402608:	0320f809 	jalr	t9
  40260c:	2625000c 	addiu	a1,s1,12
  402610:	8fbc0018 	lw	gp,24(sp)
  402614:	10000017 	b	402674 <main+0x1484>
  402618:	00409021 	move	s2,v0
  40261c:	8f998058 	lw	t9,-32680(gp)
  402620:	34048102 	li	a0,0x8102
  402624:	02e02821 	move	a1,s7
  402628:	0320f809 	jalr	t9
  40262c:	27a70840 	addiu	a3,sp,2112
  402630:	8fbc0018 	lw	gp,24(sp)
  402634:	00409021 	move	s2,v0
  402638:	10000023 	b	4026c8 <main+0x14d8>
  40263c:	24100001 	li	s0,1
  402640:	8f998118 	lw	t9,-32488(gp)
  402644:	27b00840 	addiu	s0,sp,2112
  402648:	02002021 	move	a0,s0
  40264c:	0320f809 	jalr	t9
  402650:	2625000c 	addiu	a1,s1,12
  402654:	8fbc0018 	lw	gp,24(sp)
  402658:	02002821 	move	a1,s0
  40265c:	8f84801c 	lw	a0,-32740(gp)
  402660:	8f998110 	lw	t9,-32496(gp)
  402664:	00000000 	nop
  402668:	0320f809 	jalr	t9
  40266c:	248439f8 	addiu	a0,a0,14840
  402670:	8fbc0018 	lw	gp,24(sp)
  402674:	10000015 	b	4026cc <main+0x14dc>
  402678:	24100001 	li	s0,1
  40267c:	308400ff 	andi	a0,a0,0xff
  402680:	30a200ff 	andi	v0,a1,0xff
  402684:	8f998058 	lw	t9,-32680(gp)
  402688:	00042200 	sll	a0,a0,0x8
  40268c:	00822025 	or	a0,a0,v0
  402690:	02e02821 	move	a1,s7
  402694:	2626000c 	addiu	a2,s1,12
  402698:	0320f809 	jalr	t9
  40269c:	00003821 	move	a3,zero
  4026a0:	8fbc0018 	lw	gp,24(sp)
  4026a4:	00409021 	move	s2,v0
  4026a8:	10000008 	b	4026cc <main+0x14dc>
  4026ac:	00008021 	move	s0,zero
  4026b0:	8f998044 	lw	t9,-32700(gp)
  4026b4:	00000000 	nop
  4026b8:	0320f809 	jalr	t9
  4026bc:	24100001 	li	s0,1
  4026c0:	8fbc0018 	lw	gp,24(sp)
  4026c4:	00409021 	move	s2,v0
  4026c8:	24130008 	li	s3,8
  4026cc:	12400007 	beqz	s2,4026ec <main+0x14fc>
  4026d0:	00000000 	nop
  4026d4:	8f828018 	lw	v0,-32744(gp)
  4026d8:	00000000 	nop
  4026dc:	8c423e84 	lw	v0,16004(v0)
  4026e0:	00000000 	nop
  4026e4:	1040fc4c 	beqz	v0,401818 <main+0x628>
  4026e8:	2402006f 	li	v0,111
  4026ec:	8e310000 	lw	s1,0(s1)
  4026f0:	00000000 	nop
  4026f4:	1635ff8d 	bne	s1,s5,40252c <main+0x133c>
  4026f8:	00000000 	nop
  4026fc:	1200005e 	beqz	s0,402878 <main+0x1688>
  402700:	00000000 	nop
  402704:	8f828018 	lw	v0,-32744(gp)
  402708:	00000000 	nop
  40270c:	8c423e84 	lw	v0,16004(v0)
  402710:	00000000 	nop
  402714:	14400058 	bnez	v0,402878 <main+0x1688>
  402718:	00000000 	nop
  40271c:	1a60000e 	blez	s3,402758 <main+0x1568>
  402720:	00000000 	nop
  402724:	8f84801c 	lw	a0,-32740(gp)
  402728:	8f998110 	lw	t9,-32496(gp)
  40272c:	24843a10 	addiu	a0,a0,14864
  402730:	0320f809 	jalr	t9
  402734:	02602821 	move	a1,s3
  402738:	8fbc0018 	lw	gp,24(sp)
  40273c:	00000000 	nop
  402740:	8f9980c8 	lw	t9,-32568(gp)
  402744:	00000000 	nop
  402748:	0320f809 	jalr	t9
  40274c:	02602021 	move	a0,s3
  402750:	8fbc0018 	lw	gp,24(sp)
  402754:	00000000 	nop
  402758:	8f90801c 	lw	s0,-32740(gp)
  40275c:	8f9980d4 	lw	t9,-32556(gp)
  402760:	00000000 	nop
  402764:	0320f809 	jalr	t9
  402768:	26043a34 	addiu	a0,s0,14900
  40276c:	8fbc0018 	lw	gp,24(sp)
  402770:	00000000 	nop
  402774:	8f9980d0 	lw	t9,-32560(gp)
  402778:	10000029 	b	402820 <main+0x1630>
  40277c:	26043a34 	addiu	a0,s0,14900
  402780:	8f84801c 	lw	a0,-32740(gp)
  402784:	8f9980d4 	lw	t9,-32556(gp)
  402788:	00000000 	nop
  40278c:	0320f809 	jalr	t9
  402790:	24843a3c 	addiu	a0,a0,14908
  402794:	8fbc0018 	lw	gp,24(sp)
  402798:	03c02021 	move	a0,s8
  40279c:	8f99801c 	lw	t9,-32740(gp)
  4027a0:	27a502f8 	addiu	a1,sp,760
  4027a4:	27390ee0 	addiu	t9,t9,3808
  4027a8:	0320f809 	jalr	t9
  4027ac:	27a607c0 	addiu	a2,sp,1984
  4027b0:	8fbc0018 	lw	gp,24(sp)
  4027b4:	10400030 	beqz	v0,402878 <main+0x1688>
  4027b8:	34028301 	li	v0,0x8301
  4027bc:	97a302f8 	lhu	v1,760(sp)
  4027c0:	00000000 	nop
  4027c4:	1062001b 	beq	v1,v0,402834 <main+0x1644>
  4027c8:	0043102a 	slt	v0,v0,v1
  4027cc:	14400006 	bnez	v0,4027e8 <main+0x15f8>
  4027d0:	34028303 	li	v0,0x8303
  4027d4:	34028201 	li	v0,0x8201
  4027d8:	10620007 	beq	v1,v0,4027f8 <main+0x1608>
  4027dc:	24030003 	li	v1,3
  4027e0:	10000015 	b	402838 <main+0x1648>
  4027e4:	00000000 	nop
  4027e8:	10620012 	beq	v1,v0,402834 <main+0x1644>
  4027ec:	24030003 	li	v1,3
  4027f0:	10000011 	b	402838 <main+0x1648>
  4027f4:	00000000 	nop
  4027f8:	8f828018 	lw	v0,-32744(gp)
  4027fc:	8f9980d4 	lw	t9,-32556(gp)
  402800:	27b00380 	addiu	s0,sp,896
  402804:	02002021 	move	a0,s0
  402808:	0320f809 	jalr	t9
  40280c:	ac513e80 	sw	s1,16000(v0)
  402810:	8fbc0018 	lw	gp,24(sp)
  402814:	02002021 	move	a0,s0
  402818:	8f9980d0 	lw	t9,-32560(gp)
  40281c:	00000000 	nop
  402820:	0320f809 	jalr	t9
  402824:	00000000 	nop
  402828:	8fbc0018 	lw	gp,24(sp)
  40282c:	10000012 	b	402878 <main+0x1688>
  402830:	00000000 	nop
  402834:	24030004 	li	v1,4
  402838:	8f828018 	lw	v0,-32744(gp)
  40283c:	1000000e 	b	402878 <main+0x1688>
  402840:	ac433e80 	sw	v1,16000(v0)
  402844:	8f84801c 	lw	a0,-32740(gp)
  402848:	8f9980d4 	lw	t9,-32556(gp)
  40284c:	00000000 	nop
  402850:	0320f809 	jalr	t9
  402854:	24843a58 	addiu	a0,a0,14936
  402858:	8fbc0018 	lw	gp,24(sp)
  40285c:	1000fff6 	b	402838 <main+0x1648>
  402860:	2403006b 	li	v1,107
  402864:	8fa20870 	lw	v0,2160(sp)
  402868:	00000000 	nop
  40286c:	2442ffff 	addiu	v0,v0,-1
  402870:	1c40fc65 	bgtz	v0,401a08 <main+0x818>
  402874:	afa20870 	sw	v0,2160(sp)
  402878:	8f848018 	lw	a0,-32744(gp)
  40287c:	24020002 	li	v0,2
  402880:	8c833e80 	lw	v1,16000(a0)
  402884:	8f998100 	lw	t9,-32512(gp)
  402888:	10620015 	beq	v1,v0,4028e0 <main+0x16f0>
  40288c:	28620003 	slti	v0,v1,3
  402890:	10400006 	beqz	v0,4028ac <main+0x16bc>
  402894:	24020004 	li	v0,4
  402898:	8f9980a4 	lw	t9,-32604(gp)
  40289c:	10600010 	beqz	v1,4028e0 <main+0x16f0>
  4028a0:	00000000 	nop
  4028a4:	10000004 	b	4028b8 <main+0x16c8>
  4028a8:	00000000 	nop
  4028ac:	8f9980d8 	lw	t9,-32552(gp)
  4028b0:	1062000b 	beq	v1,v0,4028e0 <main+0x16f0>
  4028b4:	00000000 	nop
  4028b8:	8c853e80 	lw	a1,16000(a0)
  4028bc:	8f84801c 	lw	a0,-32740(gp)
  4028c0:	8f998110 	lw	t9,-32496(gp)
  4028c4:	00000000 	nop
  4028c8:	0320f809 	jalr	t9
  4028cc:	24843a70 	addiu	a0,a0,14960
  4028d0:	8fbc0018 	lw	gp,24(sp)
  4028d4:	00000000 	nop
  4028d8:	8f9980b4 	lw	t9,-32588(gp)
  4028dc:	00000000 	nop
  4028e0:	0320f809 	jalr	t9
  4028e4:	00000000 	nop
  4028e8:	8fbc0018 	lw	gp,24(sp)
  4028ec:	24050002 	li	a1,2
  4028f0:	8f998064 	lw	t9,-32668(gp)
  4028f4:	00000000 	nop
  4028f8:	0320f809 	jalr	t9
  4028fc:	03c02021 	move	a0,s8
  402900:	8fbc0018 	lw	gp,24(sp)
  402904:	00000000 	nop
  402908:	8f998034 	lw	t9,-32716(gp)
  40290c:	00000000 	nop
  402910:	0320f809 	jalr	t9
  402914:	03c02021 	move	a0,s8
  402918:	8fbc0018 	lw	gp,24(sp)
  40291c:	00000000 	nop
  402920:	8f82801c 	lw	v0,-32740(gp)
  402924:	8f848104 	lw	a0,-32508(gp)
  402928:	2450115c 	addiu	s0,v0,4444
  40292c:	0200c821 	move	t9,s0
  402930:	0320f809 	jalr	t9
  402934:	00000000 	nop
  402938:	8fbc0018 	lw	gp,24(sp)
  40293c:	0200c821 	move	t9,s0
  402940:	8f848108 	lw	a0,-32504(gp)
  402944:	0320f809 	jalr	t9
  402948:	00000000 	nop
  40294c:	8fbc0018 	lw	gp,24(sp)
  402950:	00001821 	move	v1,zero
  402954:	8fbf089c 	lw	ra,2204(sp)
  402958:	8fbe0898 	lw	s8,2200(sp)
  40295c:	8fb70894 	lw	s7,2196(sp)
  402960:	8fb60890 	lw	s6,2192(sp)
  402964:	8fb5088c 	lw	s5,2188(sp)
  402968:	8fb40888 	lw	s4,2184(sp)
  40296c:	8fb30884 	lw	s3,2180(sp)
  402970:	8fb20880 	lw	s2,2176(sp)
  402974:	8fb1087c 	lw	s1,2172(sp)
  402978:	8fb00878 	lw	s0,2168(sp)
  40297c:	00601021 	move	v0,v1
  402980:	03e00008 	jr	ra
  402984:	27bd08a0 	addiu	sp,sp,2208
  402988:	3c1c0005 	lui	gp,0x5
  40298c:	279c93b8 	addiu	gp,gp,-27720
  402990:	0399e021 	addu	gp,gp,t9
  402994:	27bdffe0 	addiu	sp,sp,-32
  402998:	afbf001c 	sw	ra,28(sp)
  40299c:	afb00018 	sw	s0,24(sp)
  4029a0:	afbc0010 	sw	gp,16(sp)
  4029a4:	8f82801c 	lw	v0,-32740(gp)
  4029a8:	8f848104 	lw	a0,-32508(gp)
  4029ac:	2450115c 	addiu	s0,v0,4444
  4029b0:	0200c821 	move	t9,s0
  4029b4:	0320f809 	jalr	t9
  4029b8:	00000000 	nop
  4029bc:	8fbc0010 	lw	gp,16(sp)
  4029c0:	0200c821 	move	t9,s0
  4029c4:	8f848108 	lw	a0,-32504(gp)
  4029c8:	0320f809 	jalr	t9
  4029cc:	00000000 	nop
  4029d0:	8fbc0010 	lw	gp,16(sp)
  4029d4:	00000000 	nop
  4029d8:	8f998048 	lw	t9,-32696(gp)
  4029dc:	00000000 	nop
  4029e0:	0320f809 	jalr	t9
  4029e4:	00002021 	move	a0,zero
	...

004029f0 <LED_map>:
  4029f0:	03e00008 	jr	ra
  4029f4:	2402032a 	li	v0,810

004029f8 <trigger_DUTinfo>:
  4029f8:	3c1c0005 	lui	gp,0x5
  4029fc:	279c9348 	addiu	gp,gp,-27832
  402a00:	0399e021 	addu	gp,gp,t9
  402a04:	27bdffe0 	addiu	sp,sp,-32
  402a08:	afbf0018 	sw	ra,24(sp)
  402a0c:	afbc0010 	sw	gp,16(sp)
  402a10:	8f84801c 	lw	a0,-32740(gp)
  402a14:	8f9980d0 	lw	t9,-32560(gp)
  402a18:	00000000 	nop
  402a1c:	0320f809 	jalr	t9
  402a20:	24843a88 	addiu	a0,a0,14984
  402a24:	8fbc0010 	lw	gp,16(sp)
  402a28:	8fbf0018 	lw	ra,24(sp)
  402a2c:	8f9980c8 	lw	t9,-32568(gp)
  402a30:	24040003 	li	a0,3
  402a34:	03200008 	jr	t9
  402a38:	27bd0020 	addiu	sp,sp,32

00402a3c <remove_lang>:
  402a3c:	3c1c0005 	lui	gp,0x5
  402a40:	279c9304 	addiu	gp,gp,-27900
  402a44:	0399e021 	addu	gp,gp,t9
  402a48:	27bdffa0 	addiu	sp,sp,-96
  402a4c:	afbf0058 	sw	ra,88(sp)
  402a50:	afbc0010 	sw	gp,16(sp)
  402a54:	8f84801c 	lw	a0,-32740(gp)
  402a58:	8f9980d4 	lw	t9,-32556(gp)
  402a5c:	00000000 	nop
  402a60:	0320f809 	jalr	t9
  402a64:	24843a98 	addiu	a0,a0,15000
  402a68:	8fbc0010 	lw	gp,16(sp)
  402a6c:	27a40018 	addiu	a0,sp,24
  402a70:	8f85801c 	lw	a1,-32740(gp)
  402a74:	8f86801c 	lw	a2,-32740(gp)
  402a78:	8f99805c 	lw	t9,-32676(gp)
  402a7c:	24a53548 	addiu	a1,a1,13640
  402a80:	0320f809 	jalr	t9
  402a84:	24c63aac 	addiu	a2,a2,15020
  402a88:	8fbc0010 	lw	gp,16(sp)
  402a8c:	00000000 	nop
  402a90:	8f9980d0 	lw	t9,-32560(gp)
  402a94:	00000000 	nop
  402a98:	0320f809 	jalr	t9
  402a9c:	27a40018 	addiu	a0,sp,24
  402aa0:	8fbc0010 	lw	gp,16(sp)
  402aa4:	8fbf0058 	lw	ra,88(sp)
  402aa8:	00000000 	nop
  402aac:	03e00008 	jr	ra
  402ab0:	27bd0060 	addiu	sp,sp,96

00402ab4 <update_HWinfo>:
  402ab4:	3c1c0005 	lui	gp,0x5
  402ab8:	279c928c 	addiu	gp,gp,-28020
  402abc:	0399e021 	addu	gp,gp,t9
  402ac0:	27bdff78 	addiu	sp,sp,-136
  402ac4:	afbf0080 	sw	ra,128(sp)
  402ac8:	afb1007c 	sw	s1,124(sp)
  402acc:	afb00078 	sw	s0,120(sp)
  402ad0:	afbc0018 	sw	gp,24(sp)
  402ad4:	3084ffff 	andi	a0,a0,0xffff
  402ad8:	34028009 	li	v0,0x8009
  402adc:	10820053 	beq	a0,v0,402c2c <update_HWinfo+0x178>
  402ae0:	00a08021 	move	s0,a1
  402ae4:	0044102a 	slt	v0,v0,a0
  402ae8:	14400011 	bnez	v0,402b30 <update_HWinfo+0x7c>
  402aec:	3402800c 	li	v0,0x800c
  402af0:	34028002 	li	v0,0x8002
  402af4:	1082001f 	beq	a0,v0,402b74 <update_HWinfo+0xc0>
  402af8:	0044102a 	slt	v0,v0,a0
  402afc:	14400006 	bnez	v0,402b18 <update_HWinfo+0x64>
  402b00:	34028007 	li	v0,0x8007
  402b04:	34028001 	li	v0,0x8001
  402b08:	1082001e 	beq	a0,v0,402b84 <update_HWinfo+0xd0>
  402b0c:	00000000 	nop
  402b10:	1000006c 	b	402cc4 <update_HWinfo+0x210>
  402b14:	00000000 	nop
  402b18:	10820023 	beq	a0,v0,402ba8 <update_HWinfo+0xf4>
  402b1c:	34028008 	li	v0,0x8008
  402b20:	1082003e 	beq	a0,v0,402c1c <update_HWinfo+0x168>
  402b24:	00000000 	nop
  402b28:	10000066 	b	402cc4 <update_HWinfo+0x210>
  402b2c:	00000000 	nop
  402b30:	10820056 	beq	a0,v0,402c8c <update_HWinfo+0x1d8>
  402b34:	0044102a 	slt	v0,v0,a0
  402b38:	14400008 	bnez	v0,402b5c <update_HWinfo+0xa8>
  402b3c:	3402800e 	li	v0,0x800e
  402b40:	3402800a 	li	v0,0x800a
  402b44:	1082003d 	beq	a0,v0,402c3c <update_HWinfo+0x188>
  402b48:	3402800b 	li	v0,0x800b
  402b4c:	1082003f 	beq	a0,v0,402c4c <update_HWinfo+0x198>
  402b50:	00000000 	nop
  402b54:	1000005b 	b	402cc4 <update_HWinfo+0x210>
  402b58:	00000000 	nop
  402b5c:	1082004f 	beq	a0,v0,402c9c <update_HWinfo+0x1e8>
  402b60:	34028901 	li	v0,0x8901
  402b64:	10820051 	beq	a0,v0,402cac <update_HWinfo+0x1f8>
  402b68:	00000000 	nop
  402b6c:	10000055 	b	402cc4 <update_HWinfo+0x210>
  402b70:	00000000 	nop
  402b74:	8f85801c 	lw	a1,-32740(gp)
  402b78:	8f99805c 	lw	t9,-32676(gp)
  402b7c:	10000004 	b	402b90 <update_HWinfo+0xdc>
  402b80:	24a53ac0 	addiu	a1,a1,15040
  402b84:	8f85801c 	lw	a1,-32740(gp)
  402b88:	8f99805c 	lw	t9,-32676(gp)
  402b8c:	24a53adc 	addiu	a1,a1,15068
  402b90:	02003021 	move	a2,s0
  402b94:	27a40020 	addiu	a0,sp,32
  402b98:	0320f809 	jalr	t9
  402b9c:	00000000 	nop
  402ba0:	10000046 	b	402cbc <update_HWinfo+0x208>
  402ba4:	00000000 	nop
  402ba8:	00003021 	move	a2,zero
  402bac:	2409003a 	li	t1,58
  402bb0:	27a80020 	addiu	t0,sp,32
  402bb4:	24070011 	li	a3,17
  402bb8:	90a40000 	lbu	a0,0(a1)
  402bbc:	00c81821 	addu	v1,a2,t0
  402bc0:	00041600 	sll	v0,a0,0x18
  402bc4:	00021603 	sra	v0,v0,0x18
  402bc8:	10490003 	beq	v0,t1,402bd8 <update_HWinfo+0x124>
  402bcc:	24a50001 	addiu	a1,a1,1
  402bd0:	a0640040 	sb	a0,64(v1)
  402bd4:	24c60001 	addiu	a2,a2,1
  402bd8:	14c7fff7 	bne	a2,a3,402bb8 <update_HWinfo+0x104>
  402bdc:	27b00020 	addiu	s0,sp,32
  402be0:	8f84801c 	lw	a0,-32740(gp)
  402be4:	02061021 	addu	v0,s0,a2
  402be8:	8f998110 	lw	t9,-32496(gp)
  402bec:	27b10060 	addiu	s1,sp,96
  402bf0:	24843af8 	addiu	a0,a0,15096
  402bf4:	02202821 	move	a1,s1
  402bf8:	0320f809 	jalr	t9
  402bfc:	a0400040 	sb	zero,64(v0)
  402c00:	8fbc0018 	lw	gp,24(sp)
  402c04:	02002021 	move	a0,s0
  402c08:	8f85801c 	lw	a1,-32740(gp)
  402c0c:	8f99805c 	lw	t9,-32676(gp)
  402c10:	24a53b04 	addiu	a1,a1,15108
  402c14:	1000ffe0 	b	402b98 <update_HWinfo+0xe4>
  402c18:	02203021 	move	a2,s1
  402c1c:	8f85801c 	lw	a1,-32740(gp)
  402c20:	8f99805c 	lw	t9,-32676(gp)
  402c24:	1000ffda 	b	402b90 <update_HWinfo+0xdc>
  402c28:	24a53b1c 	addiu	a1,a1,15132
  402c2c:	8f85801c 	lw	a1,-32740(gp)
  402c30:	8f99805c 	lw	t9,-32676(gp)
  402c34:	1000ffd6 	b	402b90 <update_HWinfo+0xdc>
  402c38:	24a53b34 	addiu	a1,a1,15156
  402c3c:	8f85801c 	lw	a1,-32740(gp)
  402c40:	8f99805c 	lw	t9,-32676(gp)
  402c44:	1000ffd2 	b	402b90 <update_HWinfo+0xdc>
  402c48:	24a53b48 	addiu	a1,a1,15176
  402c4c:	8f84801c 	lw	a0,-32740(gp)
  402c50:	8f86801c 	lw	a2,-32740(gp)
  402c54:	8f87801c 	lw	a3,-32740(gp)
  402c58:	8f998090 	lw	t9,-32624(gp)
  402c5c:	afa50010 	sw	a1,16(sp)
  402c60:	24843b5c 	addiu	a0,a0,15196
  402c64:	24050075 	li	a1,117
  402c68:	24c63cd0 	addiu	a2,a2,15568
  402c6c:	0320f809 	jalr	t9
  402c70:	24e73b6c 	addiu	a3,a3,15212
  402c74:	8fbc0018 	lw	gp,24(sp)
  402c78:	00000000 	nop
  402c7c:	8f85801c 	lw	a1,-32740(gp)
  402c80:	8f99805c 	lw	t9,-32676(gp)
  402c84:	1000ffc2 	b	402b90 <update_HWinfo+0xdc>
  402c88:	24a53b80 	addiu	a1,a1,15232
  402c8c:	8f85801c 	lw	a1,-32740(gp)
  402c90:	8f99805c 	lw	t9,-32676(gp)
  402c94:	1000ffbe 	b	402b90 <update_HWinfo+0xdc>
  402c98:	24a53b94 	addiu	a1,a1,15252
  402c9c:	8f85801c 	lw	a1,-32740(gp)
  402ca0:	8f99805c 	lw	t9,-32676(gp)
  402ca4:	1000ffba 	b	402b90 <update_HWinfo+0xdc>
  402ca8:	24a53bac 	addiu	a1,a1,15276
  402cac:	8f99805c 	lw	t9,-32676(gp)
  402cb0:	00000000 	nop
  402cb4:	0320f809 	jalr	t9
  402cb8:	27a40020 	addiu	a0,sp,32
  402cbc:	8fbc0018 	lw	gp,24(sp)
  402cc0:	00000000 	nop
  402cc4:	8f9980d0 	lw	t9,-32560(gp)
  402cc8:	00000000 	nop
  402ccc:	0320f809 	jalr	t9
  402cd0:	27a40020 	addiu	a0,sp,32
  402cd4:	8fbc0018 	lw	gp,24(sp)
  402cd8:	8fbf0080 	lw	ra,128(sp)
  402cdc:	8fb1007c 	lw	s1,124(sp)
  402ce0:	8fb00078 	lw	s0,120(sp)
  402ce4:	03e00008 	jr	ra
  402ce8:	27bd0088 	addiu	sp,sp,136

00402cec <showLED_processing>:
  402cec:	3c1c0005 	lui	gp,0x5
  402cf0:	279c9054 	addiu	gp,gp,-28588
  402cf4:	0399e021 	addu	gp,gp,t9
  402cf8:	27bdffc0 	addiu	sp,sp,-64
  402cfc:	afbf0038 	sw	ra,56(sp)
  402d00:	afbc0010 	sw	gp,16(sp)
  402d04:	8f84801c 	lw	a0,-32740(gp)
  402d08:	8f9980d4 	lw	t9,-32556(gp)
  402d0c:	00000000 	nop
  402d10:	0320f809 	jalr	t9
  402d14:	24843bc4 	addiu	a0,a0,15300
  402d18:	8fbc0010 	lw	gp,16(sp)
  402d1c:	00000000 	nop
  402d20:	8f9980f0 	lw	t9,-32528(gp)
  402d24:	00000000 	nop
  402d28:	0320f809 	jalr	t9
  402d2c:	00000000 	nop
  402d30:	8fbc0010 	lw	gp,16(sp)
  402d34:	27a40018 	addiu	a0,sp,24
  402d38:	8f85801c 	lw	a1,-32740(gp)
  402d3c:	8f99805c 	lw	t9,-32676(gp)
  402d40:	24a53bd4 	addiu	a1,a1,15316
  402d44:	0320f809 	jalr	t9
  402d48:	00403021 	move	a2,v0
  402d4c:	8fbc0010 	lw	gp,16(sp)
  402d50:	00000000 	nop
  402d54:	8f9980d0 	lw	t9,-32560(gp)
  402d58:	00000000 	nop
  402d5c:	0320f809 	jalr	t9
  402d60:	27a40018 	addiu	a0,sp,24
  402d64:	8fbc0010 	lw	gp,16(sp)
  402d68:	8fbf0038 	lw	ra,56(sp)
  402d6c:	00000000 	nop
  402d70:	03e00008 	jr	ra
  402d74:	27bd0040 	addiu	sp,sp,64

00402d78 <showLED_fail>:
  402d78:	3c1c0005 	lui	gp,0x5
  402d7c:	279c8fc8 	addiu	gp,gp,-28728
  402d80:	0399e021 	addu	gp,gp,t9
  402d84:	27bdffc0 	addiu	sp,sp,-64
  402d88:	afbf0038 	sw	ra,56(sp)
  402d8c:	afbc0010 	sw	gp,16(sp)
  402d90:	8f84801c 	lw	a0,-32740(gp)
  402d94:	8f9980d4 	lw	t9,-32556(gp)
  402d98:	00000000 	nop
  402d9c:	0320f809 	jalr	t9
  402da0:	24843be0 	addiu	a0,a0,15328
  402da4:	8fbc0010 	lw	gp,16(sp)
  402da8:	00000000 	nop
  402dac:	8f9980f0 	lw	t9,-32528(gp)
  402db0:	00000000 	nop
  402db4:	0320f809 	jalr	t9
  402db8:	00000000 	nop
  402dbc:	8fbc0010 	lw	gp,16(sp)
  402dc0:	27a40018 	addiu	a0,sp,24
  402dc4:	8f85801c 	lw	a1,-32740(gp)
  402dc8:	8f99805c 	lw	t9,-32676(gp)
  402dcc:	24a53bec 	addiu	a1,a1,15340
  402dd0:	0320f809 	jalr	t9
  402dd4:	00403021 	move	a2,v0
  402dd8:	8fbc0010 	lw	gp,16(sp)
  402ddc:	00000000 	nop
  402de0:	8f9980d0 	lw	t9,-32560(gp)
  402de4:	00000000 	nop
  402de8:	0320f809 	jalr	t9
  402dec:	27a40018 	addiu	a0,sp,24
  402df0:	8fbc0010 	lw	gp,16(sp)
  402df4:	8fbf0038 	lw	ra,56(sp)
  402df8:	00000000 	nop
  402dfc:	03e00008 	jr	ra
  402e00:	27bd0040 	addiu	sp,sp,64

00402e04 <update_WiFiDomain>:
  402e04:	3c1c0005 	lui	gp,0x5
  402e08:	279c8f3c 	addiu	gp,gp,-28868
  402e0c:	0399e021 	addu	gp,gp,t9
  402e10:	27bdffa0 	addiu	sp,sp,-96
  402e14:	afbf005c 	sw	ra,92(sp)
  402e18:	afb00058 	sw	s0,88(sp)
  402e1c:	afbc0010 	sw	gp,16(sp)
  402e20:	00a08021 	move	s0,a1
  402e24:	00802821 	move	a1,a0
  402e28:	8f84801c 	lw	a0,-32740(gp)
  402e2c:	8f998110 	lw	t9,-32496(gp)
  402e30:	02003021 	move	a2,s0
  402e34:	0320f809 	jalr	t9
  402e38:	24843bf8 	addiu	a0,a0,15352
  402e3c:	8fbc0010 	lw	gp,16(sp)
  402e40:	02003021 	move	a2,s0
  402e44:	8f85801c 	lw	a1,-32740(gp)
  402e48:	8f99805c 	lw	t9,-32676(gp)
  402e4c:	24a53c10 	addiu	a1,a1,15376
  402e50:	0320f809 	jalr	t9
  402e54:	27a40018 	addiu	a0,sp,24
  402e58:	8fbc0010 	lw	gp,16(sp)
  402e5c:	00000000 	nop
  402e60:	8f9980d0 	lw	t9,-32560(gp)
  402e64:	00000000 	nop
  402e68:	0320f809 	jalr	t9
  402e6c:	27a40018 	addiu	a0,sp,24
  402e70:	8fbc0010 	lw	gp,16(sp)
  402e74:	00028203 	sra	s0,v0,0x8
  402e78:	8f9980a4 	lw	t9,-32604(gp)
  402e7c:	00000000 	nop
  402e80:	03201821 	move	v1,t9
  402e84:	8f9980b4 	lw	t9,-32588(gp)
  402e88:	16000002 	bnez	s0,402e94 <update_WiFiDomain+0x90>
  402e8c:	00000000 	nop
  402e90:	0060c821 	move	t9,v1
  402e94:	0320f809 	jalr	t9
  402e98:	00000000 	nop
  402e9c:	02001021 	move	v0,s0
  402ea0:	8fbc0010 	lw	gp,16(sp)
  402ea4:	8fbf005c 	lw	ra,92(sp)
  402ea8:	8fb00058 	lw	s0,88(sp)
  402eac:	03e00008 	jr	ra
  402eb0:	27bd0060 	addiu	sp,sp,96

00402eb4 <upgrade_firmware>:
  402eb4:	3c1c0005 	lui	gp,0x5
  402eb8:	279c8e8c 	addiu	gp,gp,-29044
  402ebc:	0399e021 	addu	gp,gp,t9
  402ec0:	27bdff88 	addiu	sp,sp,-120
  402ec4:	afbf0070 	sw	ra,112(sp)
  402ec8:	afb3006c 	sw	s3,108(sp)
  402ecc:	afb20068 	sw	s2,104(sp)
  402ed0:	afb10064 	sw	s1,100(sp)
  402ed4:	afb00060 	sw	s0,96(sp)
  402ed8:	afbc0018 	sw	gp,24(sp)
  402edc:	00809021 	move	s2,a0
  402ee0:	8f84801c 	lw	a0,-32740(gp)
  402ee4:	8f9980d4 	lw	t9,-32556(gp)
  402ee8:	24843c24 	addiu	a0,a0,15396
  402eec:	00a08021 	move	s0,a1
  402ef0:	00c08821 	move	s1,a2
  402ef4:	0320f809 	jalr	t9
  402ef8:	00e09821 	move	s3,a3
  402efc:	8fbc0018 	lw	gp,24(sp)
  402f00:	34028101 	li	v0,0x8101
  402f04:	8f85801c 	lw	a1,-32740(gp)
  402f08:	8f99805c 	lw	t9,-32676(gp)
  402f0c:	24a53c38 	addiu	a1,a1,15416
  402f10:	02003021 	move	a2,s0
  402f14:	02203821 	move	a3,s1
  402f18:	12420007 	beq	s2,v0,402f38 <upgrade_firmware+0x84>
  402f1c:	27a40020 	addiu	a0,sp,32
  402f20:	8f85801c 	lw	a1,-32740(gp)
  402f24:	34028102 	li	v0,0x8102
  402f28:	12420007 	beq	s2,v0,402f48 <upgrade_firmware+0x94>
  402f2c:	24a53c54 	addiu	a1,a1,15444
  402f30:	1000000e 	b	402f6c <upgrade_firmware+0xb8>
  402f34:	00000000 	nop
  402f38:	0320f809 	jalr	t9
  402f3c:	00000000 	nop
  402f40:	10000003 	b	402f50 <upgrade_firmware+0x9c>
  402f44:	00000000 	nop
  402f48:	0320f809 	jalr	t9
  402f4c:	afb30010 	sw	s3,16(sp)
  402f50:	8fbc0018 	lw	gp,24(sp)
  402f54:	00000000 	nop
  402f58:	8f9980d0 	lw	t9,-32560(gp)
  402f5c:	00000000 	nop
  402f60:	0320f809 	jalr	t9
  402f64:	27a40020 	addiu	a0,sp,32
  402f68:	8fbc0018 	lw	gp,24(sp)
  402f6c:	8fbf0070 	lw	ra,112(sp)
  402f70:	8fb3006c 	lw	s3,108(sp)
  402f74:	8fb20068 	lw	s2,104(sp)
  402f78:	8fb10064 	lw	s1,100(sp)
  402f7c:	8fb00060 	lw	s0,96(sp)
  402f80:	03e00008 	jr	ra
  402f84:	27bd0078 	addiu	sp,sp,120

00402f88 <showLED_finish>:
  402f88:	3c1c0005 	lui	gp,0x5
  402f8c:	279c8db8 	addiu	gp,gp,-29256
  402f90:	0399e021 	addu	gp,gp,t9
  402f94:	27bdffc0 	addiu	sp,sp,-64
  402f98:	afbf0038 	sw	ra,56(sp)
  402f9c:	afbc0010 	sw	gp,16(sp)
  402fa0:	8f84801c 	lw	a0,-32740(gp)
  402fa4:	8f9980d4 	lw	t9,-32556(gp)
  402fa8:	00000000 	nop
  402fac:	0320f809 	jalr	t9
  402fb0:	24843c70 	addiu	a0,a0,15472
  402fb4:	8fbc0010 	lw	gp,16(sp)
  402fb8:	00000000 	nop
  402fbc:	8f9980f0 	lw	t9,-32528(gp)
  402fc0:	00000000 	nop
  402fc4:	0320f809 	jalr	t9
  402fc8:	00000000 	nop
  402fcc:	8fbc0010 	lw	gp,16(sp)
  402fd0:	27a40018 	addiu	a0,sp,24
  402fd4:	8f85801c 	lw	a1,-32740(gp)
  402fd8:	8f99805c 	lw	t9,-32676(gp)
  402fdc:	24a53c90 	addiu	a1,a1,15504
  402fe0:	0320f809 	jalr	t9
  402fe4:	00403021 	move	a2,v0
  402fe8:	8fbc0010 	lw	gp,16(sp)
  402fec:	00000000 	nop
  402ff0:	8f9980d0 	lw	t9,-32560(gp)
  402ff4:	00000000 	nop
  402ff8:	0320f809 	jalr	t9
  402ffc:	27a40018 	addiu	a0,sp,24
  403000:	8fbc0010 	lw	gp,16(sp)
  403004:	8fbf0038 	lw	ra,56(sp)
  403008:	00000000 	nop
  40300c:	03e00008 	jr	ra
  403010:	27bd0040 	addiu	sp,sp,64

00403014 <showLED_not_support>:
  403014:	3c1c0005 	lui	gp,0x5
  403018:	279c8d2c 	addiu	gp,gp,-29396
  40301c:	0399e021 	addu	gp,gp,t9
  403020:	27bdffc0 	addiu	sp,sp,-64
  403024:	afbf0038 	sw	ra,56(sp)
  403028:	afbc0010 	sw	gp,16(sp)
  40302c:	8f84801c 	lw	a0,-32740(gp)
  403030:	8f9980d4 	lw	t9,-32556(gp)
  403034:	00000000 	nop
  403038:	0320f809 	jalr	t9
  40303c:	24843c9c 	addiu	a0,a0,15516
  403040:	8fbc0010 	lw	gp,16(sp)
  403044:	00000000 	nop
  403048:	8f9980f0 	lw	t9,-32528(gp)
  40304c:	00000000 	nop
  403050:	0320f809 	jalr	t9
  403054:	00000000 	nop
  403058:	8fbc0010 	lw	gp,16(sp)
  40305c:	27a40018 	addiu	a0,sp,24
  403060:	8f85801c 	lw	a1,-32740(gp)
  403064:	8f99805c 	lw	t9,-32676(gp)
  403068:	24a53cac 	addiu	a1,a1,15532
  40306c:	0320f809 	jalr	t9
  403070:	00403021 	move	a2,v0
  403074:	8fbc0010 	lw	gp,16(sp)
  403078:	00000000 	nop
  40307c:	8f9980d0 	lw	t9,-32560(gp)
  403080:	00000000 	nop
  403084:	0320f809 	jalr	t9
  403088:	27a40018 	addiu	a0,sp,24
  40308c:	8fbc0010 	lw	gp,16(sp)
  403090:	8fbf0038 	lw	ra,56(sp)
  403094:	00000000 	nop
  403098:	03e00008 	jr	ra
  40309c:	27bd0040 	addiu	sp,sp,64
  4030a0:	3c1c0005 	lui	gp,0x5
  4030a4:	279c8ca0 	addiu	gp,gp,-29536
  4030a8:	0399e021 	addu	gp,gp,t9
  4030ac:	27bdffc0 	addiu	sp,sp,-64
  4030b0:	afbf0038 	sw	ra,56(sp)
  4030b4:	afbc0010 	sw	gp,16(sp)
  4030b8:	8f84801c 	lw	a0,-32740(gp)
  4030bc:	8f9980d4 	lw	t9,-32556(gp)
  4030c0:	00000000 	nop
  4030c4:	0320f809 	jalr	t9
  4030c8:	24843cb8 	addiu	a0,a0,15544
  4030cc:	8fbc0010 	lw	gp,16(sp)
  4030d0:	00000000 	nop
  4030d4:	8f9980f0 	lw	t9,-32528(gp)
  4030d8:	00000000 	nop
  4030dc:	0320f809 	jalr	t9
  4030e0:	00000000 	nop
  4030e4:	8fbc0010 	lw	gp,16(sp)
  4030e8:	27a40018 	addiu	a0,sp,24
  4030ec:	8f85801c 	lw	a1,-32740(gp)
  4030f0:	8f99805c 	lw	t9,-32676(gp)
  4030f4:	24a53cc4 	addiu	a1,a1,15556
  4030f8:	0320f809 	jalr	t9
  4030fc:	00403021 	move	a2,v0
  403100:	8fbc0010 	lw	gp,16(sp)
  403104:	00000000 	nop
  403108:	8f9980d0 	lw	t9,-32560(gp)
  40310c:	00000000 	nop
  403110:	0320f809 	jalr	t9
  403114:	27a40018 	addiu	a0,sp,24
  403118:	8fbc0010 	lw	gp,16(sp)
  40311c:	8fbf0038 	lw	ra,56(sp)
  403120:	00000000 	nop
  403124:	03e00008 	jr	ra
  403128:	27bd0040 	addiu	sp,sp,64
  40312c:	00000000 	nop
  403130:	3c1c0005 	lui	gp,0x5
  403134:	279c8c10 	addiu	gp,gp,-29680
  403138:	0399e021 	addu	gp,gp,t9
  40313c:	27bdffd8 	addiu	sp,sp,-40
  403140:	afbf0020 	sw	ra,32(sp)
  403144:	afb1001c 	sw	s1,28(sp)
  403148:	afb00018 	sw	s0,24(sp)
  40314c:	afbc0010 	sw	gp,16(sp)
  403150:	8f998018 	lw	t9,-32744(gp)
  403154:	00000000 	nop
  403158:	27393ce8 	addiu	t9,t9,15592
  40315c:	8f39fffc 	lw	t9,-4(t9)
  403160:	2402ffff 	li	v0,-1
  403164:	8f908018 	lw	s0,-32744(gp)
  403168:	00000000 	nop
  40316c:	26103ce4 	addiu	s0,s0,15588
  403170:	13220009 	beq	t9,v0,403198 <showLED_not_support+0x184>
  403174:	2411ffff 	li	s1,-1
  403178:	2610fffc 	addiu	s0,s0,-4
  40317c:	0320f809 	jalr	t9
  403180:	00000000 	nop
  403184:	8fbc0010 	lw	gp,16(sp)
  403188:	8e190000 	lw	t9,0(s0)
  40318c:	00000000 	nop
  403190:	1731fffa 	bne	t9,s1,40317c <showLED_not_support+0x168>
  403194:	2610fffc 	addiu	s0,s0,-4
  403198:	8fbf0020 	lw	ra,32(sp)
  40319c:	8fb1001c 	lw	s1,28(sp)
  4031a0:	8fb00018 	lw	s0,24(sp)
  4031a4:	03e00008 	jr	ra
  4031a8:	27bd0028 	addiu	sp,sp,40
  4031ac:	00000000 	nop

Disassembly of section .fini:

00403440 <_fini>:
  403440:	3c1c0005 	lui	gp,0x5
  403444:	279c8900 	addiu	gp,gp,-30464
  403448:	0399e021 	addu	gp,gp,t9
  40344c:	27bdffe0 	addiu	sp,sp,-32
  403450:	afbc0010 	sw	gp,16(sp)
  403454:	afbf001c 	sw	ra,28(sp)
  403458:	afbc0018 	sw	gp,24(sp)
  40345c:	04110001 	bal	403464 <_fini+0x24>
  403460:	00000000 	nop
  403464:	3c1c0005 	lui	gp,0x5
  403468:	279c88dc 	addiu	gp,gp,-30500
  40346c:	039fe021 	addu	gp,gp,ra
  403470:	8f99801c 	lw	t9,-32740(gp)
  403474:	00000000 	nop
  403478:	27390c40 	addiu	t9,t9,3136
  40347c:	0320f809 	jalr	t9
  403480:	00000000 	nop
  403484:	8fbc0010 	lw	gp,16(sp)
  403488:	00000000 	nop
  40348c:	8fbf001c 	lw	ra,28(sp)
  403490:	03e00008 	jr	ra
  403494:	27bd0020 	addiu	sp,sp,32
