
/home/test/Desktop/MIPS-dir810_FW202B01-03/sbin/dumpleases:     Dateiformat elf32-littlemips


Disassembly of section .init:

004005d4 <_init>:
  4005d4:	3c1c0005 	lui	gp,0x5
  4005d8:	279c8c9c 	addiu	gp,gp,-29540
  4005dc:	0399e021 	addu	gp,gp,t9
  4005e0:	27bdffe0 	addiu	sp,sp,-32
  4005e4:	afbc0010 	sw	gp,16(sp)
  4005e8:	afbf001c 	sw	ra,28(sp)
  4005ec:	afbc0018 	sw	gp,24(sp)
  4005f0:	04110001 	bal	4005f8 <_init+0x24>
  4005f4:	00000000 	nop
  4005f8:	3c1c0005 	lui	gp,0x5
  4005fc:	279c8c78 	addiu	gp,gp,-29576
  400600:	039fe021 	addu	gp,gp,ra
  400604:	8f99801c 	lw	t9,-32740(gp)
  400608:	00000000 	nop
  40060c:	27390790 	addiu	t9,t9,1936
  400610:	0320f809 	jalr	t9
  400614:	00000000 	nop
  400618:	8fbc0010 	lw	gp,16(sp)
  40061c:	00000000 	nop
  400620:	04110001 	bal	400628 <_init+0x54>
  400624:	00000000 	nop
  400628:	3c1c0005 	lui	gp,0x5
  40062c:	279c8c48 	addiu	gp,gp,-29624
  400630:	039fe021 	addu	gp,gp,ra
  400634:	8f99801c 	lw	t9,-32740(gp)
  400638:	00000000 	nop
  40063c:	27390d60 	addiu	t9,t9,3424
  400640:	0320f809 	jalr	t9
  400644:	00000000 	nop
  400648:	8fbc0010 	lw	gp,16(sp)
  40064c:	00000000 	nop
  400650:	8fbf001c 	lw	ra,28(sp)
  400654:	03e00008 	jr	ra
  400658:	27bd0020 	addiu	sp,sp,32

Disassembly of section .text:

00400660 <_ftext>:
  400660:	03e00021 	move	zero,ra
  400664:	04110001 	bal	40066c <_ftext+0xc>
  400668:	00000000 	nop
  40066c:	3c1c0005 	lui	gp,0x5
  400670:	279c8c04 	addiu	gp,gp,-29692
  400674:	039fe021 	addu	gp,gp,ra
  400678:	0000f821 	move	ra,zero
  40067c:	8f848048 	lw	a0,-32696(gp)
  400680:	8fa50000 	lw	a1,0(sp)
  400684:	27a60004 	addiu	a2,sp,4
  400688:	2401fff8 	li	at,-8
  40068c:	03a1e824 	and	sp,sp,at
  400690:	27bdffe0 	addiu	sp,sp,-32
  400694:	8f878060 	lw	a3,-32672(gp)
  400698:	8f88803c 	lw	t0,-32708(gp)
  40069c:	afa80010 	sw	t0,16(sp)
  4006a0:	afa20014 	sw	v0,20(sp)
  4006a4:	afbd0018 	sw	sp,24(sp)
  4006a8:	8f998050 	lw	t9,-32688(gp)
  4006ac:	0320f809 	jalr	t9
  4006b0:	00000000 	nop
  4006b4:	1000ffff 	b	4006b4 <_ftext+0x54>
  4006b8:	00000000 	nop
  4006bc:	00000000 	nop
  4006c0:	3c1c0005 	lui	gp,0x5
  4006c4:	279c8bb0 	addiu	gp,gp,-29776
  4006c8:	0399e021 	addu	gp,gp,t9
  4006cc:	27bdffe0 	addiu	sp,sp,-32
  4006d0:	afbf0018 	sw	ra,24(sp)
  4006d4:	afbc0010 	sw	gp,16(sp)
  4006d8:	8f828018 	lw	v0,-32744(gp)
  4006dc:	00000000 	nop
  4006e0:	244212f0 	addiu	v0,v0,4848
  4006e4:	90420000 	lbu	v0,0(v0)
  4006e8:	00000000 	nop
  4006ec:	1040000a 	beqz	v0,400718 <_ftext+0xb8>
  4006f0:	00000000 	nop
  4006f4:	10000022 	b	400780 <_ftext+0x120>
  4006f8:	00000000 	nop
  4006fc:	8f818018 	lw	at,-32744(gp)
  400700:	00000000 	nop
  400704:	24211260 	addiu	at,at,4704
  400708:	0320f809 	jalr	t9
  40070c:	ac220000 	sw	v0,0(at)
  400710:	8fbc0010 	lw	gp,16(sp)
  400714:	00000000 	nop
  400718:	8f828018 	lw	v0,-32744(gp)
  40071c:	00000000 	nop
  400720:	24421260 	addiu	v0,v0,4704
  400724:	8c420000 	lw	v0,0(v0)
  400728:	00000000 	nop
  40072c:	8c590000 	lw	t9,0(v0)
  400730:	00000000 	nop
  400734:	1720fff1 	bnez	t9,4006fc <_ftext+0x9c>
  400738:	24420004 	addiu	v0,v0,4
  40073c:	8f828058 	lw	v0,-32680(gp)
  400740:	00000000 	nop
  400744:	1040000a 	beqz	v0,400770 <_ftext+0x110>
  400748:	24020001 	li	v0,1
  40074c:	8f84801c 	lw	a0,-32740(gp)
  400750:	00000000 	nop
  400754:	248411dc 	addiu	a0,a0,4572
  400758:	8f998058 	lw	t9,-32680(gp)
  40075c:	00000000 	nop
  400760:	0320f809 	jalr	t9
  400764:	00000000 	nop
  400768:	8fbc0010 	lw	gp,16(sp)
  40076c:	24020001 	li	v0,1
  400770:	8f818018 	lw	at,-32744(gp)
  400774:	00000000 	nop
  400778:	242112f0 	addiu	at,at,4848
  40077c:	a0220000 	sb	v0,0(at)
  400780:	8fbf0018 	lw	ra,24(sp)
  400784:	00000000 	nop
  400788:	03e00008 	jr	ra
  40078c:	27bd0020 	addiu	sp,sp,32
  400790:	3c1c0005 	lui	gp,0x5
  400794:	279c8ae0 	addiu	gp,gp,-29984
  400798:	0399e021 	addu	gp,gp,t9
  40079c:	27bdffe0 	addiu	sp,sp,-32
  4007a0:	afbf0018 	sw	ra,24(sp)
  4007a4:	afbc0010 	sw	gp,16(sp)
  4007a8:	8f828030 	lw	v0,-32720(gp)
  4007ac:	8f84801c 	lw	a0,-32740(gp)
  4007b0:	00000000 	nop
  4007b4:	248411dc 	addiu	a0,a0,4572
  4007b8:	8f858018 	lw	a1,-32744(gp)
  4007bc:	00000000 	nop
  4007c0:	24a512f4 	addiu	a1,a1,4852
  4007c4:	10400007 	beqz	v0,4007e4 <_ftext+0x184>
  4007c8:	00000000 	nop
  4007cc:	8f998030 	lw	t9,-32720(gp)
  4007d0:	00000000 	nop
  4007d4:	0320f809 	jalr	t9
  4007d8:	00000000 	nop
  4007dc:	8fbc0010 	lw	gp,16(sp)
  4007e0:	00000000 	nop
  4007e4:	8f828018 	lw	v0,-32744(gp)
  4007e8:	00000000 	nop
  4007ec:	244211f0 	addiu	v0,v0,4592
  4007f0:	8c420000 	lw	v0,0(v0)
  4007f4:	00000000 	nop
  4007f8:	1040000c 	beqz	v0,40082c <_ftext+0x1cc>
  4007fc:	00000000 	nop
  400800:	8f828034 	lw	v0,-32716(gp)
  400804:	8f848018 	lw	a0,-32744(gp)
  400808:	00000000 	nop
  40080c:	248411f0 	addiu	a0,a0,4592
  400810:	10400006 	beqz	v0,40082c <_ftext+0x1cc>
  400814:	00000000 	nop
  400818:	8f998034 	lw	t9,-32716(gp)
  40081c:	00000000 	nop
  400820:	0320f809 	jalr	t9
  400824:	00000000 	nop
  400828:	8fbc0010 	lw	gp,16(sp)
  40082c:	8fbf0018 	lw	ra,24(sp)
  400830:	00000000 	nop
  400834:	03e00008 	jr	ra
  400838:	27bd0020 	addiu	sp,sp,32
  40083c:	00000000 	nop

00400840 <main>:
  400840:	3c1c0005 	lui	gp,0x5
  400844:	279c8a30 	addiu	gp,gp,-30160
  400848:	0399e021 	addu	gp,gp,t9
  40084c:	27bdff60 	addiu	sp,sp,-160
  400850:	afbf0098 	sw	ra,152(sp)
  400854:	afb30094 	sw	s3,148(sp)
  400858:	afb20090 	sw	s2,144(sp)
  40085c:	afb1008c 	sw	s1,140(sp)
  400860:	afb00088 	sw	s0,136(sp)
  400864:	afbc0018 	sw	gp,24(sp)
  400868:	8f82801c 	lw	v0,-32740(gp)
  40086c:	00809021 	move	s2,a0
  400870:	00a08821 	move	s1,a1
  400874:	24500f28 	addiu	s0,v0,3880
  400878:	00009821 	move	s3,zero
  40087c:	8f86801c 	lw	a2,-32740(gp)
  400880:	8f878018 	lw	a3,-32744(gp)
  400884:	8f998070 	lw	t9,-32656(gp)
  400888:	27a20080 	addiu	v0,sp,128
  40088c:	02402021 	move	a0,s2
  400890:	afa20010 	sw	v0,16(sp)
  400894:	afa00080 	sw	zero,128(sp)
  400898:	24c60f3c 	addiu	a2,a2,3900
  40089c:	24e711f4 	addiu	a3,a3,4596
  4008a0:	0320f809 	jalr	t9
  4008a4:	02202821 	move	a1,s1
  4008a8:	00401821 	move	v1,v0
  4008ac:	28440067 	slti	a0,v0,103
  4008b0:	2402ffff 	li	v0,-1
  4008b4:	8fbc0018 	lw	gp,24(sp)
  4008b8:	10620018 	beq	v1,v0,40091c <main+0xdc>
  4008bc:	24020066 	li	v0,102
  4008c0:	1062000a 	beq	v1,v0,4008ec <main+0xac>
  4008c4:	00000000 	nop
  4008c8:	24130001 	li	s3,1
  4008cc:	14800003 	bnez	a0,4008dc <main+0x9c>
  4008d0:	24020061 	li	v0,97
  4008d4:	00009821 	move	s3,zero
  4008d8:	24020072 	li	v0,114
  4008dc:	1062ffe7 	beq	v1,v0,40087c <main+0x3c>
  4008e0:	00000000 	nop
  4008e4:	10000006 	b	400900 <main+0xc0>
  4008e8:	00000000 	nop
  4008ec:	8f828064 	lw	v0,-32668(gp)
  4008f0:	00000000 	nop
  4008f4:	8c500000 	lw	s0,0(v0)
  4008f8:	1000ffe0 	b	40087c <main+0x3c>
  4008fc:	00000000 	nop
  400900:	8f84801c 	lw	a0,-32740(gp)
  400904:	8f998068 	lw	t9,-32664(gp)
  400908:	00000000 	nop
  40090c:	0320f809 	jalr	t9
  400910:	24840f44 	addiu	a0,a0,3908
  400914:	1000000e 	b	400950 <main+0x110>
  400918:	00000000 	nop
  40091c:	8f85801c 	lw	a1,-32740(gp)
  400920:	8f99804c 	lw	t9,-32692(gp)
  400924:	02002021 	move	a0,s0
  400928:	0320f809 	jalr	t9
  40092c:	24a51030 	addiu	a1,a1,4144
  400930:	8fbc0018 	lw	gp,24(sp)
  400934:	1440000c 	bnez	v0,400968 <main+0x128>
  400938:	00408821 	move	s1,v0
  40093c:	8f84801c 	lw	a0,-32740(gp)
  400940:	8f99806c 	lw	t9,-32660(gp)
  400944:	00000000 	nop
  400948:	0320f809 	jalr	t9
  40094c:	24841034 	addiu	a0,a0,4148
  400950:	8fbc0018 	lw	gp,24(sp)
  400954:	00000000 	nop
  400958:	8f998038 	lw	t9,-32712(gp)
  40095c:	00000000 	nop
  400960:	0320f809 	jalr	t9
  400964:	00002021 	move	a0,zero
  400968:	16600004 	bnez	s3,40097c <main+0x13c>
  40096c:	00000000 	nop
  400970:	8f82801c 	lw	v0,-32740(gp)
  400974:	10000004 	b	400988 <main+0x148>
  400978:	24451050 	addiu	a1,v0,4176
  40097c:	8f82801c 	lw	v0,-32740(gp)
  400980:	00000000 	nop
  400984:	24451054 	addiu	a1,v0,4180
  400988:	8f84801c 	lw	a0,-32740(gp)
  40098c:	8f998074 	lw	t9,-32652(gp)
  400990:	00000000 	nop
  400994:	0320f809 	jalr	t9
  400998:	24841058 	addiu	a0,a0,4184
  40099c:	8fbc0018 	lw	gp,24(sp)
  4009a0:	00000000 	nop
  4009a4:	8f84801c 	lw	a0,-32740(gp)
  4009a8:	8f998068 	lw	t9,-32664(gp)
  4009ac:	10000064 	b	400b40 <main+0x300>
  4009b0:	248410d0 	addiu	a0,a0,4304
  4009b4:	8f84801c 	lw	a0,-32740(gp)
  4009b8:	03b01021 	addu	v0,sp,s0
  4009bc:	8f998074 	lw	t9,-32652(gp)
  4009c0:	90450020 	lbu	a1,32(v0)
  4009c4:	0320f809 	jalr	t9
  4009c8:	24841154 	addiu	a0,a0,4436
  4009cc:	8fbc0018 	lw	gp,24(sp)
  4009d0:	24020005 	li	v0,5
  4009d4:	8f998078 	lw	t9,-32648(gp)
  4009d8:	12020004 	beq	s0,v0,4009ec <main+0x1ac>
  4009dc:	2404003a 	li	a0,58
  4009e0:	0320f809 	jalr	t9
  4009e4:	00000000 	nop
  4009e8:	8fbc0018 	lw	gp,24(sp)
  4009ec:	26100001 	addiu	s0,s0,1
  4009f0:	2a020006 	slti	v0,s0,6
  4009f4:	1440ffef 	bnez	v0,4009b4 <main+0x174>
  4009f8:	00000000 	nop
  4009fc:	8f998040 	lw	t9,-32704(gp)
  400a00:	8fa40030 	lw	a0,48(sp)
  400a04:	0320f809 	jalr	t9
  400a08:	00000000 	nop
  400a0c:	8fbc0018 	lw	gp,24(sp)
  400a10:	00402821 	move	a1,v0
  400a14:	8f84801c 	lw	a0,-32740(gp)
  400a18:	8f998074 	lw	t9,-32652(gp)
  400a1c:	00000000 	nop
  400a20:	0320f809 	jalr	t9
  400a24:	2484115c 	addiu	a0,a0,4444
  400a28:	8fa50034 	lw	a1,52(sp)
  400a2c:	8fbc0018 	lw	gp,24(sp)
  400a30:	00052202 	srl	a0,a1,0x8
  400a34:	3084ff00 	andi	a0,a0,0xff00
  400a38:	00051602 	srl	v0,a1,0x18
  400a3c:	30a3ff00 	andi	v1,a1,0xff00
  400a40:	00031a00 	sll	v1,v1,0x8
  400a44:	00441025 	or	v0,v0,a0
  400a48:	00431025 	or	v0,v0,v1
  400a4c:	00052e00 	sll	a1,a1,0x18
  400a50:	8f998078 	lw	t9,-32648(gp)
  400a54:	00451025 	or	v0,v0,a1
  400a58:	24040020 	li	a0,32
  400a5c:	0320f809 	jalr	t9
  400a60:	afa20084 	sw	v0,132(sp)
  400a64:	8fbc0018 	lw	gp,24(sp)
  400a68:	27a50038 	addiu	a1,sp,56
  400a6c:	8f84801c 	lw	a0,-32740(gp)
  400a70:	8f998074 	lw	t9,-32652(gp)
  400a74:	00000000 	nop
  400a78:	0320f809 	jalr	t9
  400a7c:	24841164 	addiu	a0,a0,4452
  400a80:	8fa30078 	lw	v1,120(sp)
  400a84:	24020001 	li	v0,1
  400a88:	8fbc0018 	lw	gp,24(sp)
  400a8c:	1062000f 	beq	v1,v0,400acc <main+0x28c>
  400a90:	00000000 	nop
  400a94:	10600007 	beqz	v1,400ab4 <main+0x274>
  400a98:	24020002 	li	v0,2
  400a9c:	10620011 	beq	v1,v0,400ae4 <main+0x2a4>
  400aa0:	24020003 	li	v0,3
  400aa4:	10620015 	beq	v1,v0,400afc <main+0x2bc>
  400aa8:	00000000 	nop
  400aac:	1000001b 	b	400b1c <main+0x2dc>
  400ab0:	00000000 	nop
  400ab4:	8f84801c 	lw	a0,-32740(gp)
  400ab8:	8f85801c 	lw	a1,-32740(gp)
  400abc:	8f998074 	lw	t9,-32652(gp)
  400ac0:	2484116c 	addiu	a0,a0,4460
  400ac4:	10000012 	b	400b10 <main+0x2d0>
  400ac8:	24a51174 	addiu	a1,a1,4468
  400acc:	8f84801c 	lw	a0,-32740(gp)
  400ad0:	8f85801c 	lw	a1,-32740(gp)
  400ad4:	8f998074 	lw	t9,-32652(gp)
  400ad8:	2484116c 	addiu	a0,a0,4460
  400adc:	1000000c 	b	400b10 <main+0x2d0>
  400ae0:	24a5117c 	addiu	a1,a1,4476
  400ae4:	8f84801c 	lw	a0,-32740(gp)
  400ae8:	8f85801c 	lw	a1,-32740(gp)
  400aec:	8f998074 	lw	t9,-32652(gp)
  400af0:	2484116c 	addiu	a0,a0,4460
  400af4:	10000006 	b	400b10 <main+0x2d0>
  400af8:	24a51184 	addiu	a1,a1,4484
  400afc:	8f84801c 	lw	a0,-32740(gp)
  400b00:	8f85801c 	lw	a1,-32740(gp)
  400b04:	8f998074 	lw	t9,-32652(gp)
  400b08:	2484116c 	addiu	a0,a0,4460
  400b0c:	24a51190 	addiu	a1,a1,4496
  400b10:	0320f809 	jalr	t9
  400b14:	00000000 	nop
  400b18:	8fbc0018 	lw	gp,24(sp)
  400b1c:	1660006e 	bnez	s3,400cd8 <main+0x498>
  400b20:	00000000 	nop
  400b24:	8fa30084 	lw	v1,132(sp)
  400b28:	00000000 	nop
  400b2c:	14600008 	bnez	v1,400b50 <main+0x310>
  400b30:	3c020001 	lui	v0,0x1
  400b34:	8f84801c 	lw	a0,-32740(gp)
  400b38:	8f998068 	lw	t9,-32664(gp)
  400b3c:	24841198 	addiu	a0,a0,4504
  400b40:	0320f809 	jalr	t9
  400b44:	00000000 	nop
  400b48:	1000006e 	b	400d04 <main+0x4c4>
  400b4c:	00000000 	nop
  400b50:	34425180 	ori	v0,v0,0x5180
  400b54:	0043102a 	slt	v0,v0,v1
  400b58:	1040001d 	beqz	v0,400bd0 <main+0x390>
  400b5c:	3c10c22e 	lui	s0,0xc22e
  400b60:	36104507 	ori	s0,s0,0x4507
  400b64:	00700018 	mult	v1,s0
  400b68:	8f84801c 	lw	a0,-32740(gp)
  400b6c:	000317c3 	sra	v0,v1,0x1f
  400b70:	8f998074 	lw	t9,-32652(gp)
  400b74:	248411a0 	addiu	a0,a0,4512
  400b78:	00002810 	mfhi	a1
  400b7c:	00a32821 	addu	a1,a1,v1
  400b80:	00052c03 	sra	a1,a1,0x10
  400b84:	0320f809 	jalr	t9
  400b88:	00a22823 	subu	a1,a1,v0
  400b8c:	8fa40084 	lw	a0,132(sp)
  400b90:	8fbc0018 	lw	gp,24(sp)
  400b94:	00900018 	mult	a0,s0
  400b98:	000417c3 	sra	v0,a0,0x1f
  400b9c:	00008010 	mfhi	s0
  400ba0:	02048021 	addu	s0,s0,a0
  400ba4:	00108403 	sra	s0,s0,0x10
  400ba8:	02028023 	subu	s0,s0,v0
  400bac:	00101040 	sll	v0,s0,0x1
  400bb0:	00501021 	addu	v0,v0,s0
  400bb4:	00021900 	sll	v1,v0,0x4
  400bb8:	00621823 	subu	v1,v1,v0
  400bbc:	00031100 	sll	v0,v1,0x4
  400bc0:	00431023 	subu	v0,v0,v1
  400bc4:	000211c0 	sll	v0,v0,0x7
  400bc8:	00822023 	subu	a0,a0,v0
  400bcc:	afa40084 	sw	a0,132(sp)
  400bd0:	8fa30084 	lw	v1,132(sp)
  400bd4:	00000000 	nop
  400bd8:	28620e11 	slti	v0,v1,3601
  400bdc:	1440001f 	bnez	v0,400c5c <main+0x41c>
  400be0:	2862003d 	slti	v0,v1,61
  400be4:	3c1091a2 	lui	s0,0x91a2
  400be8:	3610b3c5 	ori	s0,s0,0xb3c5
  400bec:	00700018 	mult	v1,s0
  400bf0:	8f84801c 	lw	a0,-32740(gp)
  400bf4:	000317c3 	sra	v0,v1,0x1f
  400bf8:	8f998074 	lw	t9,-32652(gp)
  400bfc:	248411ac 	addiu	a0,a0,4524
  400c00:	00002810 	mfhi	a1
  400c04:	00a32821 	addu	a1,a1,v1
  400c08:	00052ac3 	sra	a1,a1,0xb
  400c0c:	0320f809 	jalr	t9
  400c10:	00a22823 	subu	a1,a1,v0
  400c14:	8fa30084 	lw	v1,132(sp)
  400c18:	8fbc0018 	lw	gp,24(sp)
  400c1c:	00700018 	mult	v1,s0
  400c20:	000317c3 	sra	v0,v1,0x1f
  400c24:	00008010 	mfhi	s0
  400c28:	02038021 	addu	s0,s0,v1
  400c2c:	001082c3 	sra	s0,s0,0xb
  400c30:	02028023 	subu	s0,s0,v0
  400c34:	001010c0 	sll	v0,s0,0x3
  400c38:	00501023 	subu	v0,v0,s0
  400c3c:	00021140 	sll	v0,v0,0x5
  400c40:	00501021 	addu	v0,v0,s0
  400c44:	00021100 	sll	v0,v0,0x4
  400c48:	00621823 	subu	v1,v1,v0
  400c4c:	afa30084 	sw	v1,132(sp)
  400c50:	8fa30084 	lw	v1,132(sp)
  400c54:	00000000 	nop
  400c58:	2862003d 	slti	v0,v1,61
  400c5c:	14400019 	bnez	v0,400cc4 <main+0x484>
  400c60:	3c108888 	lui	s0,0x8888
  400c64:	36108889 	ori	s0,s0,0x8889
  400c68:	00700018 	mult	v1,s0
  400c6c:	8f84801c 	lw	a0,-32740(gp)
  400c70:	000317c3 	sra	v0,v1,0x1f
  400c74:	8f998074 	lw	t9,-32652(gp)
  400c78:	248411b8 	addiu	a0,a0,4536
  400c7c:	00002810 	mfhi	a1
  400c80:	00a32821 	addu	a1,a1,v1
  400c84:	00052943 	sra	a1,a1,0x5
  400c88:	0320f809 	jalr	t9
  400c8c:	00a22823 	subu	a1,a1,v0
  400c90:	8fa30084 	lw	v1,132(sp)
  400c94:	8fbc0018 	lw	gp,24(sp)
  400c98:	00700018 	mult	v1,s0
  400c9c:	000317c3 	sra	v0,v1,0x1f
  400ca0:	00008010 	mfhi	s0
  400ca4:	02038021 	addu	s0,s0,v1
  400ca8:	00108143 	sra	s0,s0,0x5
  400cac:	02028023 	subu	s0,s0,v0
  400cb0:	00101100 	sll	v0,s0,0x4
  400cb4:	00501023 	subu	v0,v0,s0
  400cb8:	00021080 	sll	v0,v0,0x2
  400cbc:	00621823 	subu	v1,v1,v0
  400cc0:	afa30084 	sw	v1,132(sp)
  400cc4:	8f84801c 	lw	a0,-32740(gp)
  400cc8:	8f998074 	lw	t9,-32652(gp)
  400ccc:	8fa50084 	lw	a1,132(sp)
  400cd0:	1000000a 	b	400cfc <main+0x4bc>
  400cd4:	248411c8 	addiu	a0,a0,4552
  400cd8:	8f99805c 	lw	t9,-32676(gp)
  400cdc:	00000000 	nop
  400ce0:	0320f809 	jalr	t9
  400ce4:	27a40084 	addiu	a0,sp,132
  400ce8:	8fbc0018 	lw	gp,24(sp)
  400cec:	00402821 	move	a1,v0
  400cf0:	8f84801c 	lw	a0,-32740(gp)
  400cf4:	8f998074 	lw	t9,-32652(gp)
  400cf8:	248411d8 	addiu	a0,a0,4568
  400cfc:	0320f809 	jalr	t9
  400d00:	00000000 	nop
  400d04:	8fbc0018 	lw	gp,24(sp)
  400d08:	27a40020 	addiu	a0,sp,32
  400d0c:	8f998054 	lw	t9,-32684(gp)
  400d10:	2405005c 	li	a1,92
  400d14:	24060001 	li	a2,1
  400d18:	0320f809 	jalr	t9
  400d1c:	02203821 	move	a3,s1
  400d20:	8fbc0018 	lw	gp,24(sp)
  400d24:	1440ff23 	bnez	v0,4009b4 <main+0x174>
  400d28:	00008021 	move	s0,zero
  400d2c:	8f998044 	lw	t9,-32700(gp)
  400d30:	00000000 	nop
  400d34:	0320f809 	jalr	t9
  400d38:	02202021 	move	a0,s1
  400d3c:	8fbc0018 	lw	gp,24(sp)
  400d40:	8fbf0098 	lw	ra,152(sp)
  400d44:	8fb30094 	lw	s3,148(sp)
  400d48:	8fb20090 	lw	s2,144(sp)
  400d4c:	8fb1008c 	lw	s1,140(sp)
  400d50:	8fb00088 	lw	s0,136(sp)
  400d54:	00001021 	move	v0,zero
  400d58:	03e00008 	jr	ra
  400d5c:	27bd00a0 	addiu	sp,sp,160
  400d60:	3c1c0005 	lui	gp,0x5
  400d64:	279c8510 	addiu	gp,gp,-31472
  400d68:	0399e021 	addu	gp,gp,t9
  400d6c:	27bdffd8 	addiu	sp,sp,-40
  400d70:	afbf0020 	sw	ra,32(sp)
  400d74:	afb1001c 	sw	s1,28(sp)
  400d78:	afb00018 	sw	s0,24(sp)
  400d7c:	afbc0010 	sw	gp,16(sp)
  400d80:	8f998018 	lw	t9,-32744(gp)
  400d84:	00000000 	nop
  400d88:	273911e4 	addiu	t9,t9,4580
  400d8c:	8f39fffc 	lw	t9,-4(t9)
  400d90:	2402ffff 	li	v0,-1
  400d94:	8f908018 	lw	s0,-32744(gp)
  400d98:	00000000 	nop
  400d9c:	261011e0 	addiu	s0,s0,4576
  400da0:	13220009 	beq	t9,v0,400dc8 <main+0x588>
  400da4:	2411ffff 	li	s1,-1
  400da8:	2610fffc 	addiu	s0,s0,-4
  400dac:	0320f809 	jalr	t9
  400db0:	00000000 	nop
  400db4:	8fbc0010 	lw	gp,16(sp)
  400db8:	8e190000 	lw	t9,0(s0)
  400dbc:	00000000 	nop
  400dc0:	1731fffa 	bne	t9,s1,400dac <main+0x56c>
  400dc4:	2610fffc 	addiu	s0,s0,-4
  400dc8:	8fbf0020 	lw	ra,32(sp)
  400dcc:	8fb1001c 	lw	s1,28(sp)
  400dd0:	8fb00018 	lw	s0,24(sp)
  400dd4:	03e00008 	jr	ra
  400dd8:	27bd0028 	addiu	sp,sp,40
  400ddc:	00000000 	nop

Disassembly of section .fini:

00400eb0 <_fini>:
  400eb0:	3c1c0005 	lui	gp,0x5
  400eb4:	279c83c0 	addiu	gp,gp,-31808
  400eb8:	0399e021 	addu	gp,gp,t9
  400ebc:	27bdffe0 	addiu	sp,sp,-32
  400ec0:	afbc0010 	sw	gp,16(sp)
  400ec4:	afbf001c 	sw	ra,28(sp)
  400ec8:	afbc0018 	sw	gp,24(sp)
  400ecc:	04110001 	bal	400ed4 <_fini+0x24>
  400ed0:	00000000 	nop
  400ed4:	3c1c0005 	lui	gp,0x5
  400ed8:	279c839c 	addiu	gp,gp,-31844
  400edc:	039fe021 	addu	gp,gp,ra
  400ee0:	8f99801c 	lw	t9,-32740(gp)
  400ee4:	00000000 	nop
  400ee8:	273906c0 	addiu	t9,t9,1728
  400eec:	0320f809 	jalr	t9
  400ef0:	00000000 	nop
  400ef4:	8fbc0010 	lw	gp,16(sp)
  400ef8:	00000000 	nop
  400efc:	8fbf001c 	lw	ra,28(sp)
  400f00:	03e00008 	jr	ra
  400f04:	27bd0020 	addiu	sp,sp,32
