
/home/test/Desktop/MIPS-dir810_FW202B01-03/sbin/watchdog:     Dateiformat elf32-littlemips


Disassembly of section .init:

004009bc <_init>:
  4009bc:	3c1c0005 	lui	gp,0x5
  4009c0:	279c9714 	addiu	gp,gp,-26860
  4009c4:	0399e021 	addu	gp,gp,t9
  4009c8:	27bdffe0 	addiu	sp,sp,-32
  4009cc:	afbc0010 	sw	gp,16(sp)
  4009d0:	afbf001c 	sw	ra,28(sp)
  4009d4:	afbc0018 	sw	gp,24(sp)
  4009d8:	04110001 	bal	4009e0 <_init+0x24>
  4009dc:	00000000 	nop
  4009e0:	3c1c0005 	lui	gp,0x5
  4009e4:	279c96f0 	addiu	gp,gp,-26896
  4009e8:	039fe021 	addu	gp,gp,ra
  4009ec:	8f99801c 	lw	t9,-32740(gp)
  4009f0:	00000000 	nop
  4009f4:	27390b80 	addiu	t9,t9,2944
  4009f8:	0320f809 	jalr	t9
  4009fc:	00000000 	nop
  400a00:	8fbc0010 	lw	gp,16(sp)
  400a04:	00000000 	nop
  400a08:	04110001 	bal	400a10 <_init+0x54>
  400a0c:	00000000 	nop
  400a10:	3c1c0005 	lui	gp,0x5
  400a14:	279c96c0 	addiu	gp,gp,-26944
  400a18:	039fe021 	addu	gp,gp,ra
  400a1c:	8f99801c 	lw	t9,-32740(gp)
  400a20:	00000000 	nop
  400a24:	27391980 	addiu	t9,t9,6528
  400a28:	0320f809 	jalr	t9
  400a2c:	00000000 	nop
  400a30:	8fbc0010 	lw	gp,16(sp)
  400a34:	00000000 	nop
  400a38:	8fbf001c 	lw	ra,28(sp)
  400a3c:	03e00008 	jr	ra
  400a40:	27bd0020 	addiu	sp,sp,32

Disassembly of section .text:

00400a50 <_ftext>:
  400a50:	03e00021 	move	zero,ra
  400a54:	04110001 	bal	400a5c <_ftext+0xc>
  400a58:	00000000 	nop
  400a5c:	3c1c0005 	lui	gp,0x5
  400a60:	279c9674 	addiu	gp,gp,-27020
  400a64:	039fe021 	addu	gp,gp,ra
  400a68:	0000f821 	move	ra,zero
  400a6c:	8f848078 	lw	a0,-32648(gp)
  400a70:	8fa50000 	lw	a1,0(sp)
  400a74:	27a60004 	addiu	a2,sp,4
  400a78:	2401fff8 	li	at,-8
  400a7c:	03a1e824 	and	sp,sp,at
  400a80:	27bdffe0 	addiu	sp,sp,-32
  400a84:	8f8780bc 	lw	a3,-32580(gp)
  400a88:	8f888068 	lw	t0,-32664(gp)
  400a8c:	afa80010 	sw	t0,16(sp)
  400a90:	afa20014 	sw	v0,20(sp)
  400a94:	afbd0018 	sw	sp,24(sp)
  400a98:	8f998084 	lw	t9,-32636(gp)
  400a9c:	0320f809 	jalr	t9
  400aa0:	00000000 	nop
  400aa4:	1000ffff 	b	400aa4 <_ftext+0x54>
  400aa8:	00000000 	nop
  400aac:	00000000 	nop
  400ab0:	3c1c0005 	lui	gp,0x5
  400ab4:	279c9620 	addiu	gp,gp,-27104
  400ab8:	0399e021 	addu	gp,gp,t9
  400abc:	27bdffe0 	addiu	sp,sp,-32
  400ac0:	afbf0018 	sw	ra,24(sp)
  400ac4:	afbc0010 	sw	gp,16(sp)
  400ac8:	8f828018 	lw	v0,-32744(gp)
  400acc:	00000000 	nop
  400ad0:	244221e0 	addiu	v0,v0,8672
  400ad4:	90420000 	lbu	v0,0(v0)
  400ad8:	00000000 	nop
  400adc:	1040000a 	beqz	v0,400b08 <_ftext+0xb8>
  400ae0:	00000000 	nop
  400ae4:	10000022 	b	400b70 <_ftext+0x120>
  400ae8:	00000000 	nop
  400aec:	8f818018 	lw	at,-32744(gp)
  400af0:	00000000 	nop
  400af4:	24212040 	addiu	at,at,8256
  400af8:	0320f809 	jalr	t9
  400afc:	ac220000 	sw	v0,0(at)
  400b00:	8fbc0010 	lw	gp,16(sp)
  400b04:	00000000 	nop
  400b08:	8f828018 	lw	v0,-32744(gp)
  400b0c:	00000000 	nop
  400b10:	24422040 	addiu	v0,v0,8256
  400b14:	8c420000 	lw	v0,0(v0)
  400b18:	00000000 	nop
  400b1c:	8c590000 	lw	t9,0(v0)
  400b20:	00000000 	nop
  400b24:	1720fff1 	bnez	t9,400aec <_ftext+0x9c>
  400b28:	24420004 	addiu	v0,v0,4
  400b2c:	8f8280a8 	lw	v0,-32600(gp)
  400b30:	00000000 	nop
  400b34:	1040000a 	beqz	v0,400b60 <_ftext+0x110>
  400b38:	24020001 	li	v0,1
  400b3c:	8f84801c 	lw	a0,-32740(gp)
  400b40:	00000000 	nop
  400b44:	24841f70 	addiu	a0,a0,8048
  400b48:	8f9980a8 	lw	t9,-32600(gp)
  400b4c:	00000000 	nop
  400b50:	0320f809 	jalr	t9
  400b54:	00000000 	nop
  400b58:	8fbc0010 	lw	gp,16(sp)
  400b5c:	24020001 	li	v0,1
  400b60:	8f818018 	lw	at,-32744(gp)
  400b64:	00000000 	nop
  400b68:	242121e0 	addiu	at,at,8672
  400b6c:	a0220000 	sb	v0,0(at)
  400b70:	8fbf0018 	lw	ra,24(sp)
  400b74:	00000000 	nop
  400b78:	03e00008 	jr	ra
  400b7c:	27bd0020 	addiu	sp,sp,32
  400b80:	3c1c0005 	lui	gp,0x5
  400b84:	279c9550 	addiu	gp,gp,-27312
  400b88:	0399e021 	addu	gp,gp,t9
  400b8c:	27bdffe0 	addiu	sp,sp,-32
  400b90:	afbf0018 	sw	ra,24(sp)
  400b94:	afbc0010 	sw	gp,16(sp)
  400b98:	8f828038 	lw	v0,-32712(gp)
  400b9c:	8f84801c 	lw	a0,-32740(gp)
  400ba0:	00000000 	nop
  400ba4:	24841f70 	addiu	a0,a0,8048
  400ba8:	8f858018 	lw	a1,-32744(gp)
  400bac:	00000000 	nop
  400bb0:	24a521e4 	addiu	a1,a1,8676
  400bb4:	10400007 	beqz	v0,400bd4 <_ftext+0x184>
  400bb8:	00000000 	nop
  400bbc:	8f998038 	lw	t9,-32712(gp)
  400bc0:	00000000 	nop
  400bc4:	0320f809 	jalr	t9
  400bc8:	00000000 	nop
  400bcc:	8fbc0010 	lw	gp,16(sp)
  400bd0:	00000000 	nop
  400bd4:	8f828018 	lw	v0,-32744(gp)
  400bd8:	00000000 	nop
  400bdc:	24422010 	addiu	v0,v0,8208
  400be0:	8c420000 	lw	v0,0(v0)
  400be4:	00000000 	nop
  400be8:	1040000c 	beqz	v0,400c1c <_ftext+0x1cc>
  400bec:	00000000 	nop
  400bf0:	8f828040 	lw	v0,-32704(gp)
  400bf4:	8f848018 	lw	a0,-32744(gp)
  400bf8:	00000000 	nop
  400bfc:	24842010 	addiu	a0,a0,8208
  400c00:	10400006 	beqz	v0,400c1c <_ftext+0x1cc>
  400c04:	00000000 	nop
  400c08:	8f998040 	lw	t9,-32704(gp)
  400c0c:	00000000 	nop
  400c10:	0320f809 	jalr	t9
  400c14:	00000000 	nop
  400c18:	8fbc0010 	lw	gp,16(sp)
  400c1c:	8fbf0018 	lw	ra,24(sp)
  400c20:	00000000 	nop
  400c24:	03e00008 	jr	ra
  400c28:	27bd0020 	addiu	sp,sp,32
  400c2c:	00000000 	nop

00400c30 <sigterm_handler>:
  400c30:	3c1c0005 	lui	gp,0x5
  400c34:	279c94a0 	addiu	gp,gp,-27488
  400c38:	0399e021 	addu	gp,gp,t9
  400c3c:	8f828090 	lw	v0,-32624(gp)
  400c40:	00000000 	nop
  400c44:	ac400000 	sw	zero,0(v0)
  400c48:	03e00008 	jr	ra
  400c4c:	00000000 	nop

00400c50 <terminate>:
  400c50:	3c1c0005 	lui	gp,0x5
  400c54:	279c9480 	addiu	gp,gp,-27520
  400c58:	0399e021 	addu	gp,gp,t9
  400c5c:	27bdffd8 	addiu	sp,sp,-40
  400c60:	afbf0020 	sw	ra,32(sp)
  400c64:	afb1001c 	sw	s1,28(sp)
  400c68:	afb00018 	sw	s0,24(sp)
  400c6c:	afbc0010 	sw	gp,16(sp)
  400c70:	8f8280c0 	lw	v0,-32576(gp)
  400c74:	24030001 	li	v1,1
  400c78:	8c440000 	lw	a0,0(v0)
  400c7c:	00000000 	nop
  400c80:	1083002f 	beq	a0,v1,400d40 <terminate+0xf0>
  400c84:	00000000 	nop
  400c88:	8f9080c8 	lw	s0,-32568(gp)
  400c8c:	2411ffff 	li	s1,-1
  400c90:	8e040000 	lw	a0,0(s0)
  400c94:	00000000 	nop
  400c98:	10910010 	beq	a0,s1,400cdc <terminate+0x8c>
  400c9c:	00000000 	nop
  400ca0:	8f85801c 	lw	a1,-32740(gp)
  400ca4:	8f9980b4 	lw	t9,-32588(gp)
  400ca8:	24a51ca0 	addiu	a1,a1,7328
  400cac:	0320f809 	jalr	t9
  400cb0:	24060001 	li	a2,1
  400cb4:	8fbc0010 	lw	gp,16(sp)
  400cb8:	0440003c 	bltz	v0,400dac <terminate+0x15c>
  400cbc:	00000000 	nop
  400cc0:	8f998034 	lw	t9,-32716(gp)
  400cc4:	8e040000 	lw	a0,0(s0)
  400cc8:	0320f809 	jalr	t9
  400ccc:	00000000 	nop
  400cd0:	8fbc0010 	lw	gp,16(sp)
  400cd4:	10510043 	beq	v0,s1,400de4 <terminate+0x194>
  400cd8:	00000000 	nop
  400cdc:	8f85801c 	lw	a1,-32740(gp)
  400ce0:	8f998070 	lw	t9,-32656(gp)
  400ce4:	24a51ca4 	addiu	a1,a1,7332
  400ce8:	24040006 	li	a0,6
  400cec:	24060005 	li	a2,5
  400cf0:	0320f809 	jalr	t9
  400cf4:	24070006 	li	a3,6
  400cf8:	8fbc0010 	lw	gp,16(sp)
  400cfc:	00000000 	nop
  400d00:	8f998094 	lw	t9,-32620(gp)
  400d04:	00000000 	nop
  400d08:	0320f809 	jalr	t9
  400d0c:	00000000 	nop
  400d10:	8fbc0010 	lw	gp,16(sp)
  400d14:	00000000 	nop
  400d18:	8f9980d4 	lw	t9,-32556(gp)
  400d1c:	00000000 	nop
  400d20:	0320f809 	jalr	t9
  400d24:	24040005 	li	a0,5
  400d28:	8fbc0010 	lw	gp,16(sp)
  400d2c:	00000000 	nop
  400d30:	8f998054 	lw	t9,-32684(gp)
  400d34:	00000000 	nop
  400d38:	0320f809 	jalr	t9
  400d3c:	00002021 	move	a0,zero
  400d40:	8f8280dc 	lw	v0,-32548(gp)
  400d44:	00000000 	nop
  400d48:	8c430000 	lw	v1,0(v0)
  400d4c:	00000000 	nop
  400d50:	1464ffcd 	bne	v1,a0,400c88 <terminate+0x38>
  400d54:	00000000 	nop
  400d58:	8f9980fc 	lw	t9,-32516(gp)
  400d5c:	00000000 	nop
  400d60:	0320f809 	jalr	t9
  400d64:	00000000 	nop
  400d68:	8fbc0010 	lw	gp,16(sp)
  400d6c:	1040ffc6 	beqz	v0,400c88 <terminate+0x38>
  400d70:	00000000 	nop
  400d74:	8f998058 	lw	t9,-32680(gp)
  400d78:	00000000 	nop
  400d7c:	0320f809 	jalr	t9
  400d80:	00000000 	nop
  400d84:	8fbc0010 	lw	gp,16(sp)
  400d88:	8c460000 	lw	a2,0(v0)
  400d8c:	8f85801c 	lw	a1,-32740(gp)
  400d90:	8f998070 	lw	t9,-32656(gp)
  400d94:	24a51cd0 	addiu	a1,a1,7376
  400d98:	0320f809 	jalr	t9
  400d9c:	24040003 	li	a0,3
  400da0:	8fbc0010 	lw	gp,16(sp)
  400da4:	1000ffb8 	b	400c88 <terminate+0x38>
  400da8:	00000000 	nop
  400dac:	8f998058 	lw	t9,-32680(gp)
  400db0:	00000000 	nop
  400db4:	0320f809 	jalr	t9
  400db8:	00000000 	nop
  400dbc:	8fbc0010 	lw	gp,16(sp)
  400dc0:	8c460000 	lw	a2,0(v0)
  400dc4:	8f85801c 	lw	a1,-32740(gp)
  400dc8:	8f998070 	lw	t9,-32656(gp)
  400dcc:	24a51cfc 	addiu	a1,a1,7420
  400dd0:	0320f809 	jalr	t9
  400dd4:	24040003 	li	a0,3
  400dd8:	8fbc0010 	lw	gp,16(sp)
  400ddc:	1000ffb8 	b	400cc0 <terminate+0x70>
  400de0:	00000000 	nop
  400de4:	8f998058 	lw	t9,-32680(gp)
  400de8:	00000000 	nop
  400dec:	0320f809 	jalr	t9
  400df0:	00000000 	nop
  400df4:	8fbc0010 	lw	gp,16(sp)
  400df8:	8c470000 	lw	a3,0(v0)
  400dfc:	8f8380ac 	lw	v1,-32596(gp)
  400e00:	8f85801c 	lw	a1,-32740(gp)
  400e04:	8f998070 	lw	t9,-32656(gp)
  400e08:	8c660000 	lw	a2,0(v1)
  400e0c:	24a51d28 	addiu	a1,a1,7464
  400e10:	0320f809 	jalr	t9
  400e14:	24040001 	li	a0,1
  400e18:	8fbc0010 	lw	gp,16(sp)
  400e1c:	1000ffaf 	b	400cdc <terminate+0x8c>
  400e20:	00000000 	nop
  400e24:	8ca20000 	lw	v0,0(a1)
  400e28:	00803821 	move	a3,a0
  400e2c:	00463021 	addu	a2,v0,a2
  400e30:	aca60000 	sw	a2,0(a1)
  400e34:	00c41021 	addu	v0,a2,a0
  400e38:	80440000 	lb	a0,0(v0)
  400e3c:	24030020 	li	v1,32
  400e40:	1083000e 	beq	a0,v1,400e7c <terminate+0x22c>
  400e44:	24020009 	li	v0,9
  400e48:	1082000c 	beq	a0,v0,400e7c <terminate+0x22c>
  400e4c:	00c71021 	addu	v0,a2,a3
  400e50:	80440000 	lb	a0,0(v0)
  400e54:	2403003d 	li	v1,61
  400e58:	10830018 	beq	a0,v1,400ebc <terminate+0x26c>
  400e5c:	24030020 	li	v1,32
  400e60:	1083001e 	beq	a0,v1,400edc <terminate+0x28c>
  400e64:	24020009 	li	v0,9
  400e68:	1082001b 	beq	a0,v0,400ed8 <terminate+0x288>
  400e6c:	00c71821 	addu	v1,a2,a3
  400e70:	80620000 	lb	v0,0(v1)
  400e74:	03e00008 	jr	ra
  400e78:	2c420001 	sltiu	v0,v0,1
  400e7c:	24040009 	li	a0,9
  400e80:	24c60001 	addiu	a2,a2,1
  400e84:	aca60000 	sw	a2,0(a1)
  400e88:	00c71021 	addu	v0,a2,a3
  400e8c:	80420000 	lb	v0,0(v0)
  400e90:	00000000 	nop
  400e94:	1043fffa 	beq	v0,v1,400e80 <terminate+0x230>
  400e98:	00000000 	nop
  400e9c:	1044fff9 	beq	v0,a0,400e84 <terminate+0x234>
  400ea0:	24c60001 	addiu	a2,a2,1
  400ea4:	24c6ffff 	addiu	a2,a2,-1
  400ea8:	00c71021 	addu	v0,a2,a3
  400eac:	80440000 	lb	a0,0(v0)
  400eb0:	2403003d 	li	v1,61
  400eb4:	1483ffea 	bne	a0,v1,400e60 <terminate+0x210>
  400eb8:	24030020 	li	v1,32
  400ebc:	24c60001 	addiu	a2,a2,1
  400ec0:	aca60000 	sw	a2,0(a1)
  400ec4:	00c71021 	addu	v0,a2,a3
  400ec8:	80440000 	lb	a0,0(v0)
  400ecc:	24030020 	li	v1,32
  400ed0:	1483ffe5 	bne	a0,v1,400e68 <terminate+0x218>
  400ed4:	24020009 	li	v0,9
  400ed8:	24030020 	li	v1,32
  400edc:	24040009 	li	a0,9
  400ee0:	24c60001 	addiu	a2,a2,1
  400ee4:	aca60000 	sw	a2,0(a1)
  400ee8:	00c71021 	addu	v0,a2,a3
  400eec:	80420000 	lb	v0,0(v0)
  400ef0:	00000000 	nop
  400ef4:	1043fffa 	beq	v0,v1,400ee0 <terminate+0x290>
  400ef8:	00000000 	nop
  400efc:	1044fff9 	beq	v0,a0,400ee4 <terminate+0x294>
  400f00:	24c60001 	addiu	a2,a2,1
  400f04:	24c6ffff 	addiu	a2,a2,-1
  400f08:	00c71821 	addu	v1,a2,a3
  400f0c:	80620000 	lb	v0,0(v1)
  400f10:	03e00008 	jr	ra
  400f14:	2c420001 	sltiu	v0,v0,1

00400f18 <main>:
  400f18:	3c1c0005 	lui	gp,0x5
  400f1c:	279c91b8 	addiu	gp,gp,-28232
  400f20:	0399e021 	addu	gp,gp,t9
  400f24:	27bdfdf0 	addiu	sp,sp,-528
  400f28:	afbf020c 	sw	ra,524(sp)
  400f2c:	afbe0208 	sw	s8,520(sp)
  400f30:	afb70204 	sw	s7,516(sp)
  400f34:	afb60200 	sw	s6,512(sp)
  400f38:	afb501fc 	sw	s5,508(sp)
  400f3c:	afb401f8 	sw	s4,504(sp)
  400f40:	afb301f4 	sw	s3,500(sp)
  400f44:	afb201f0 	sw	s2,496(sp)
  400f48:	afb101ec 	sw	s1,492(sp)
  400f4c:	afb001e8 	sw	s0,488(sp)
  400f50:	afbc0018 	sw	gp,24(sp)
  400f54:	8f99806c 	lw	t9,-32660(gp)
  400f58:	0080b821 	move	s7,a0
  400f5c:	2404ffec 	li	a0,-20
  400f60:	0320f809 	jalr	t9
  400f64:	00a0b021 	move	s6,a1
  400f68:	8fbc0018 	lw	gp,24(sp)
  400f6c:	00402821 	move	a1,v0
  400f70:	8f84801c 	lw	a0,-32740(gp)
  400f74:	8f9980f4 	lw	t9,-32524(gp)
  400f78:	00000000 	nop
  400f7c:	0320f809 	jalr	t9
  400f80:	24841d48 	addiu	a0,a0,7496
  400f84:	8fbc0018 	lw	gp,24(sp)
  400f88:	27b40120 	addiu	s4,sp,288
  400f8c:	8f838018 	lw	v1,-32744(gp)
  400f90:	8f82801c 	lw	v0,-32740(gp)
  400f94:	24672060 	addiu	a3,v1,8288
  400f98:	8f83801c 	lw	v1,-32740(gp)
  400f9c:	245e1da0 	addiu	s8,v0,7584
  400fa0:	24731db4 	addiu	s3,v1,7604
  400fa4:	02803021 	move	a2,s4
  400fa8:	24e80070 	addiu	t0,a3,112
  400fac:	8ce20000 	lw	v0,0(a3)
  400fb0:	8ce30004 	lw	v1,4(a3)
  400fb4:	8ce40008 	lw	a0,8(a3)
  400fb8:	8ce5000c 	lw	a1,12(a3)
  400fbc:	24e70010 	addiu	a3,a3,16
  400fc0:	acc20000 	sw	v0,0(a2)
  400fc4:	acc30004 	sw	v1,4(a2)
  400fc8:	acc40008 	sw	a0,8(a2)
  400fcc:	acc5000c 	sw	a1,12(a2)
  400fd0:	14e8fff6 	bne	a3,t0,400fac <main+0x94>
  400fd4:	24c60010 	addiu	a2,a2,16
  400fd8:	8f9980b8 	lw	t9,-32584(gp)
  400fdc:	8ec40000 	lw	a0,0(s6)
  400fe0:	0320f809 	jalr	t9
  400fe4:	2411ffff 	li	s1,-1
  400fe8:	8fbc0018 	lw	gp,24(sp)
  400fec:	24100001 	li	s0,1
  400ff0:	8f8380f8 	lw	v1,-32520(gp)
  400ff4:	8f9580d0 	lw	s5,-32560(gp)
  400ff8:	ac620000 	sw	v0,0(v1)
  400ffc:	3c02002f 	lui	v0,0x2f
  401000:	3452b92b 	ori	s2,v0,0xb92b
  401004:	8f9980f0 	lw	t9,-32528(gp)
  401008:	02e02021 	move	a0,s7
  40100c:	02c02821 	move	a1,s6
  401010:	afa00010 	sw	zero,16(sp)
  401014:	02603021 	move	a2,s3
  401018:	0320f809 	jalr	t9
  40101c:	02803821 	move	a3,s4
  401020:	2443ff9f 	addiu	v1,v0,-97
  401024:	00702004 	sllv	a0,s0,v1
  401028:	30850004 	andi	a1,a0,0x4
  40102c:	8fbc0018 	lw	gp,24(sp)
  401030:	2c630016 	sltiu	v1,v1,22
  401034:	10510015 	beq	v0,s1,40108c <main+0x174>
  401038:	00922024 	and	a0,a0,s2
  40103c:	106000e8 	beqz	v1,4013e0 <main+0x4c8>
  401040:	00000000 	nop
  401044:	1480ffef 	bnez	a0,401004 <main+0xec>
  401048:	00000000 	nop
  40104c:	10a000e4 	beqz	a1,4013e0 <main+0x4c8>
  401050:	02603021 	move	a2,s3
  401054:	8f9980f0 	lw	t9,-32528(gp)
  401058:	8ebe0000 	lw	s8,0(s5)
  40105c:	02e02021 	move	a0,s7
  401060:	02c02821 	move	a1,s6
  401064:	afa00010 	sw	zero,16(sp)
  401068:	0320f809 	jalr	t9
  40106c:	02803821 	move	a3,s4
  401070:	2443ff9f 	addiu	v1,v0,-97
  401074:	00702004 	sllv	a0,s0,v1
  401078:	30850004 	andi	a1,a0,0x4
  40107c:	8fbc0018 	lw	gp,24(sp)
  401080:	2c630016 	sltiu	v1,v1,22
  401084:	1451ffed 	bne	v0,s1,40103c <main+0x124>
  401088:	00922024 	and	a0,a0,s2
  40108c:	8f85801c 	lw	a1,-32740(gp)
  401090:	8f8380f8 	lw	v1,-32520(gp)
  401094:	8f99807c 	lw	t9,-32644(gp)
  401098:	03c02021 	move	a0,s8
  40109c:	8c760000 	lw	s6,0(v1)
  4010a0:	0320f809 	jalr	t9
  4010a4:	24a51dd0 	addiu	a1,a1,7632
  4010a8:	8fbc0018 	lw	gp,24(sp)
  4010ac:	10400113 	beqz	v0,4014fc <main+0x5e4>
  4010b0:	00409021 	move	s2,v0
  4010b4:	8f82801c 	lw	v0,-32740(gp)
  4010b8:	8f9e8060 	lw	s8,-32672(gp)
  4010bc:	27b30190 	addiu	s3,sp,400
  4010c0:	24570e24 	addiu	s7,v0,3620
  4010c4:	27b00020 	addiu	s0,sp,32
  4010c8:	24140020 	li	s4,32
  4010cc:	24150009 	li	s5,9
  4010d0:	8f9980d8 	lw	t9,-32552(gp)
  4010d4:	00000000 	nop
  4010d8:	0320f809 	jalr	t9
  4010dc:	02402021 	move	a0,s2
  4010e0:	8fbc0018 	lw	gp,24(sp)
  4010e4:	14400065 	bnez	v0,40127c <main+0x364>
  4010e8:	00000000 	nop
  4010ec:	8f9980e4 	lw	t9,-32540(gp)
  4010f0:	02602021 	move	a0,s3
  4010f4:	24050050 	li	a1,80
  4010f8:	0320f809 	jalr	t9
  4010fc:	02403021 	move	a2,s2
  401100:	8fbc0018 	lw	gp,24(sp)
  401104:	104000f6 	beqz	v0,4014e0 <main+0x5c8>
  401108:	00000000 	nop
  40110c:	83a20190 	lb	v0,400(sp)
  401110:	afa001e0 	sw	zero,480(sp)
  401114:	10540083 	beq	v0,s4,401324 <main+0x40c>
  401118:	00001821 	move	v1,zero
  40111c:	10550082 	beq	v0,s5,401328 <main+0x410>
  401120:	24040020 	li	a0,32
  401124:	02031021 	addu	v0,s0,v1
  401128:	80440170 	lb	a0,368(v0)
  40112c:	24030023 	li	v1,35
  401130:	1083ffe7 	beq	a0,v1,4010d0 <main+0x1b8>
  401134:	00000000 	nop
  401138:	8f99804c 	lw	t9,-32692(gp)
  40113c:	00000000 	nop
  401140:	0320f809 	jalr	t9
  401144:	02602021 	move	a0,s3
  401148:	2443ffff 	addiu	v1,v0,-1
  40114c:	02031021 	addu	v0,s0,v1
  401150:	80440170 	lb	a0,368(v0)
  401154:	8fbc0018 	lw	gp,24(sp)
  401158:	1094007f 	beq	a0,s4,401358 <main+0x440>
  40115c:	00000000 	nop
  401160:	1095007d 	beq	a0,s5,401358 <main+0x440>
  401164:	2402000a 	li	v0,10
  401168:	1082007b 	beq	a0,v0,401358 <main+0x440>
  40116c:	02031021 	addu	v0,s0,v1
  401170:	a0400171 	sb	zero,369(v0)
  401174:	8fa401e0 	lw	a0,480(sp)
  401178:	00000000 	nop
  40117c:	02041021 	addu	v0,s0,a0
  401180:	80430170 	lb	v1,368(v0)
  401184:	00000000 	nop
  401188:	1060ffd1 	beqz	v1,4010d0 <main+0x1b8>
  40118c:	00000000 	nop
  401190:	8f85801c 	lw	a1,-32740(gp)
  401194:	8f99808c 	lw	t9,-32628(gp)
  401198:	02648821 	addu	s1,s3,a0
  40119c:	24a51dd4 	addiu	a1,a1,7636
  4011a0:	02202021 	move	a0,s1
  4011a4:	0320f809 	jalr	t9
  4011a8:	24060008 	li	a2,8
  4011ac:	8fbc0018 	lw	gp,24(sp)
  4011b0:	10400079 	beqz	v0,401398 <main+0x480>
  4011b4:	02202021 	move	a0,s1
  4011b8:	8f85801c 	lw	a1,-32740(gp)
  4011bc:	8f99808c 	lw	t9,-32628(gp)
  4011c0:	24a51de0 	addiu	a1,a1,7648
  4011c4:	0320f809 	jalr	t9
  4011c8:	2406000f 	li	a2,15
  4011cc:	8fbc0018 	lw	gp,24(sp)
  4011d0:	1040009d 	beqz	v0,401448 <main+0x530>
  4011d4:	02202021 	move	a0,s1
  4011d8:	8f85801c 	lw	a1,-32740(gp)
  4011dc:	8f99808c 	lw	t9,-32628(gp)
  4011e0:	24a51df0 	addiu	a1,a1,7664
  4011e4:	0320f809 	jalr	t9
  4011e8:	24060008 	li	a2,8
  4011ec:	8fbc0018 	lw	gp,24(sp)
  4011f0:	104000a0 	beqz	v0,401474 <main+0x55c>
  4011f4:	02602021 	move	a0,s3
  4011f8:	8f85801c 	lw	a1,-32740(gp)
  4011fc:	8f99808c 	lw	t9,-32628(gp)
  401200:	02202021 	move	a0,s1
  401204:	24a51dfc 	addiu	a1,a1,7676
  401208:	0320f809 	jalr	t9
  40120c:	24060008 	li	a2,8
  401210:	8fbc0018 	lw	gp,24(sp)
  401214:	1440ffae 	bnez	v0,4010d0 <main+0x1b8>
  401218:	02602021 	move	a0,s3
  40121c:	27a501e0 	addiu	a1,sp,480
  401220:	02e0c821 	move	t9,s7
  401224:	0320f809 	jalr	t9
  401228:	24060008 	li	a2,8
  40122c:	8fbc0018 	lw	gp,24(sp)
  401230:	144000b8 	bnez	v0,401514 <main+0x5fc>
  401234:	00000000 	nop
  401238:	8fa401e0 	lw	a0,480(sp)
  40123c:	8f9980ec 	lw	t9,-32532(gp)
  401240:	00000000 	nop
  401244:	0320f809 	jalr	t9
  401248:	02642021 	addu	a0,s3,a0
  40124c:	8fbc0018 	lw	gp,24(sp)
  401250:	00000000 	nop
  401254:	8f838050 	lw	v1,-32688(gp)
  401258:	00000000 	nop
  40125c:	ac620000 	sw	v0,0(v1)
  401260:	8f9980d8 	lw	t9,-32552(gp)
  401264:	00000000 	nop
  401268:	0320f809 	jalr	t9
  40126c:	02402021 	move	a0,s2
  401270:	8fbc0018 	lw	gp,24(sp)
  401274:	1040ff9d 	beqz	v0,4010ec <main+0x1d4>
  401278:	00000000 	nop
  40127c:	8f998074 	lw	t9,-32652(gp)
  401280:	00000000 	nop
  401284:	0320f809 	jalr	t9
  401288:	02402021 	move	a0,s2
  40128c:	8fbc0018 	lw	gp,24(sp)
  401290:	1440009a 	bnez	v0,4014fc <main+0x5e4>
  401294:	00000000 	nop
  401298:	8f84801c 	lw	a0,-32740(gp)
  40129c:	8f9980a4 	lw	t9,-32604(gp)
  4012a0:	00000000 	nop
  4012a4:	0320f809 	jalr	t9
  4012a8:	24841e08 	addiu	a0,a0,7688
  4012ac:	8fbc0018 	lw	gp,24(sp)
  4012b0:	04400188 	bltz	v0,4018d4 <main+0x9bc>
  4012b4:	00000000 	nop
  4012b8:	8f998088 	lw	t9,-32632(gp)
  4012bc:	00000000 	nop
  4012c0:	0320f809 	jalr	t9
  4012c4:	00000000 	nop
  4012c8:	8fbc0018 	lw	gp,24(sp)
  4012cc:	0440017c 	bltz	v0,4018c0 <main+0x9a8>
  4012d0:	00408021 	move	s0,v0
  4012d4:	18400098 	blez	v0,401538 <main+0x620>
  4012d8:	00402021 	move	a0,v0
  4012dc:	8f998100 	lw	t9,-32512(gp)
  4012e0:	00002821 	move	a1,zero
  4012e4:	0320f809 	jalr	t9
  4012e8:	00003021 	move	a2,zero
  4012ec:	8fbc0018 	lw	gp,24(sp)
  4012f0:	1050017e 	beq	v0,s0,4018ec <main+0x9d4>
  4012f4:	00000000 	nop
  4012f8:	8f8380f8 	lw	v1,-32520(gp)
  4012fc:	8f9980e0 	lw	t9,-32544(gp)
  401300:	8c640000 	lw	a0,0(v1)
  401304:	0320f809 	jalr	t9
  401308:	00000000 	nop
  40130c:	8fbc0018 	lw	gp,24(sp)
  401310:	24040001 	li	a0,1
  401314:	8f998054 	lw	t9,-32684(gp)
  401318:	00000000 	nop
  40131c:	0320f809 	jalr	t9
  401320:	00000000 	nop
  401324:	24040020 	li	a0,32
  401328:	24050009 	li	a1,9
  40132c:	24630001 	addiu	v1,v1,1
  401330:	02031021 	addu	v0,s0,v1
  401334:	80420170 	lb	v0,368(v0)
  401338:	00000000 	nop
  40133c:	1044fffb 	beq	v0,a0,40132c <main+0x414>
  401340:	00000000 	nop
  401344:	1045fffa 	beq	v0,a1,401330 <main+0x418>
  401348:	24630001 	addiu	v1,v1,1
  40134c:	2463ffff 	addiu	v1,v1,-1
  401350:	1000ff74 	b	401124 <main+0x20c>
  401354:	afa301e0 	sw	v1,480(sp)
  401358:	24040020 	li	a0,32
  40135c:	24050009 	li	a1,9
  401360:	2406000a 	li	a2,10
  401364:	2463ffff 	addiu	v1,v1,-1
  401368:	02031021 	addu	v0,s0,v1
  40136c:	80420170 	lb	v0,368(v0)
  401370:	00000000 	nop
  401374:	1044fffb 	beq	v0,a0,401364 <main+0x44c>
  401378:	00000000 	nop
  40137c:	1045fff9 	beq	v0,a1,401364 <main+0x44c>
  401380:	00000000 	nop
  401384:	1046fff8 	beq	v0,a2,401368 <main+0x450>
  401388:	2463ffff 	addiu	v1,v1,-1
  40138c:	24630001 	addiu	v1,v1,1
  401390:	1000ff77 	b	401170 <main+0x258>
  401394:	02031021 	addu	v0,s0,v1
  401398:	02602021 	move	a0,s3
  40139c:	27a501e0 	addiu	a1,sp,480
  4013a0:	02e0c821 	move	t9,s7
  4013a4:	0320f809 	jalr	t9
  4013a8:	24060008 	li	a2,8
  4013ac:	8fbc0018 	lw	gp,24(sp)
  4013b0:	14400058 	bnez	v0,401514 <main+0x5fc>
  4013b4:	00000000 	nop
  4013b8:	8fa401e0 	lw	a0,480(sp)
  4013bc:	8f9980ec 	lw	t9,-32532(gp)
  4013c0:	00000000 	nop
  4013c4:	0320f809 	jalr	t9
  4013c8:	02642021 	addu	a0,s3,a0
  4013cc:	8fbc0018 	lw	gp,24(sp)
  4013d0:	00000000 	nop
  4013d4:	8f8380c4 	lw	v1,-32572(gp)
  4013d8:	1000ffa1 	b	401260 <main+0x348>
  4013dc:	ac620000 	sw	v0,0(v1)
  4013e0:	8f998060 	lw	t9,-32672(gp)
  4013e4:	8f8280f8 	lw	v0,-32520(gp)
  4013e8:	8f85801c 	lw	a1,-32740(gp)
  4013ec:	8f240000 	lw	a0,0(t9)
  4013f0:	8c460000 	lw	a2,0(v0)
  4013f4:	8f9980b0 	lw	t9,-32592(gp)
  4013f8:	24020006 	li	v0,6
  4013fc:	24a51e0c 	addiu	a1,a1,7692
  401400:	24070005 	li	a3,5
  401404:	0320f809 	jalr	t9
  401408:	afa20010 	sw	v0,16(sp)
  40140c:	8fbc0018 	lw	gp,24(sp)
  401410:	00000000 	nop
  401414:	8f838060 	lw	v1,-32672(gp)
  401418:	8f8280f8 	lw	v0,-32520(gp)
  40141c:	8f85801c 	lw	a1,-32740(gp)
  401420:	8f9980b0 	lw	t9,-32592(gp)
  401424:	8c640000 	lw	a0,0(v1)
  401428:	8c460000 	lw	a2,0(v0)
  40142c:	0320f809 	jalr	t9
  401430:	24a51e28 	addiu	a1,a1,7720
  401434:	8fbc0018 	lw	gp,24(sp)
  401438:	00000000 	nop
  40143c:	8f998054 	lw	t9,-32684(gp)
  401440:	1000ffb6 	b	40131c <main+0x404>
  401444:	24040001 	li	a0,1
  401448:	02602021 	move	a0,s3
  40144c:	27a501e0 	addiu	a1,sp,480
  401450:	02e0c821 	move	t9,s7
  401454:	0320f809 	jalr	t9
  401458:	2406000f 	li	a2,15
  40145c:	8fbc0018 	lw	gp,24(sp)
  401460:	10400015 	beqz	v0,4014b8 <main+0x5a0>
  401464:	00000000 	nop
  401468:	8f8280ac 	lw	v0,-32596(gp)
  40146c:	1000ff18 	b	4010d0 <main+0x1b8>
  401470:	ac400000 	sw	zero,0(v0)
  401474:	27a501e0 	addiu	a1,sp,480
  401478:	02e0c821 	move	t9,s7
  40147c:	0320f809 	jalr	t9
  401480:	24060008 	li	a2,8
  401484:	8fbc0018 	lw	gp,24(sp)
  401488:	8fa401e0 	lw	a0,480(sp)
  40148c:	8f85801c 	lw	a1,-32740(gp)
  401490:	8f99808c 	lw	t9,-32628(gp)
  401494:	02642021 	addu	a0,s3,a0
  401498:	24a51e30 	addiu	a1,a1,7728
  40149c:	0320f809 	jalr	t9
  4014a0:	24060003 	li	a2,3
  4014a4:	8fbc0018 	lw	gp,24(sp)
  4014a8:	2c420001 	sltiu	v0,v0,1
  4014ac:	8f8380c0 	lw	v1,-32576(gp)
  4014b0:	1000ff6b 	b	401260 <main+0x348>
  4014b4:	ac620000 	sw	v0,0(v1)
  4014b8:	8fa401e0 	lw	a0,480(sp)
  4014bc:	8f998080 	lw	t9,-32640(gp)
  4014c0:	00000000 	nop
  4014c4:	0320f809 	jalr	t9
  4014c8:	02642021 	addu	a0,s3,a0
  4014cc:	8fbc0018 	lw	gp,24(sp)
  4014d0:	00000000 	nop
  4014d4:	8f8380ac 	lw	v1,-32596(gp)
  4014d8:	1000ff61 	b	401260 <main+0x348>
  4014dc:	ac620000 	sw	v0,0(v1)
  4014e0:	8f9980a0 	lw	t9,-32608(gp)
  4014e4:	00000000 	nop
  4014e8:	0320f809 	jalr	t9
  4014ec:	02402021 	move	a0,s2
  4014f0:	8fbc0018 	lw	gp,24(sp)
  4014f4:	1040ff61 	beqz	v0,40127c <main+0x364>
  4014f8:	00000000 	nop
  4014fc:	8f9980e0 	lw	t9,-32544(gp)
  401500:	00000000 	nop
  401504:	0320f809 	jalr	t9
  401508:	02c02021 	move	a0,s6
  40150c:	1000ff7f 	b	40130c <main+0x3f4>
  401510:	00000000 	nop
  401514:	8f82801c 	lw	v0,-32740(gp)
  401518:	8f9980b0 	lw	t9,-32592(gp)
  40151c:	8fc40000 	lw	a0,0(s8)
  401520:	24451e34 	addiu	a1,v0,7732
  401524:	0320f809 	jalr	t9
  401528:	02603021 	move	a2,s3
  40152c:	8fbc0018 	lw	gp,24(sp)
  401530:	1000fee7 	b	4010d0 <main+0x1b8>
  401534:	00000000 	nop
  401538:	8f998088 	lw	t9,-32632(gp)
  40153c:	00000000 	nop
  401540:	0320f809 	jalr	t9
  401544:	00000000 	nop
  401548:	8fbc0018 	lw	gp,24(sp)
  40154c:	044000e1 	bltz	v0,4018d4 <main+0x9bc>
  401550:	00000000 	nop
  401554:	1c4000e5 	bgtz	v0,4018ec <main+0x9d4>
  401558:	00000000 	nop
  40155c:	8f998044 	lw	t9,-32700(gp)
  401560:	8f9180c0 	lw	s1,-32576(gp)
  401564:	0320f809 	jalr	t9
  401568:	00000000 	nop
  40156c:	8fbc0018 	lw	gp,24(sp)
  401570:	00000000 	nop
  401574:	8f998034 	lw	t9,-32716(gp)
  401578:	00000000 	nop
  40157c:	0320f809 	jalr	t9
  401580:	00002021 	move	a0,zero
  401584:	8fbc0018 	lw	gp,24(sp)
  401588:	00000000 	nop
  40158c:	8f998034 	lw	t9,-32716(gp)
  401590:	00000000 	nop
  401594:	0320f809 	jalr	t9
  401598:	24040001 	li	a0,1
  40159c:	8fbc0018 	lw	gp,24(sp)
  4015a0:	00000000 	nop
  4015a4:	8f998034 	lw	t9,-32716(gp)
  4015a8:	00000000 	nop
  4015ac:	0320f809 	jalr	t9
  4015b0:	24040002 	li	a0,2
  4015b4:	8fbc0018 	lw	gp,24(sp)
  4015b8:	24050001 	li	a1,1
  4015bc:	8f8280f8 	lw	v0,-32520(gp)
  4015c0:	8f998098 	lw	t9,-32616(gp)
  4015c4:	8c440000 	lw	a0,0(v0)
  4015c8:	0320f809 	jalr	t9
  4015cc:	24060018 	li	a2,24
  4015d0:	8fbc0018 	lw	gp,24(sp)
  4015d4:	24060005 	li	a2,5
  4015d8:	8f85801c 	lw	a1,-32740(gp)
  4015dc:	8f998064 	lw	t9,-32668(gp)
  4015e0:	24070006 	li	a3,6
  4015e4:	24a51e60 	addiu	a1,a1,7776
  4015e8:	0320f809 	jalr	t9
  4015ec:	27a40020 	addiu	a0,sp,32
  4015f0:	8fbc0018 	lw	gp,24(sp)
  4015f4:	00000000 	nop
  4015f8:	8f99804c 	lw	t9,-32692(gp)
  4015fc:	00000000 	nop
  401600:	0320f809 	jalr	t9
  401604:	27a40020 	addiu	a0,sp,32
  401608:	8fbc0018 	lw	gp,24(sp)
  40160c:	8e240000 	lw	a0,0(s1)
  401610:	8f9380c4 	lw	s3,-32572(gp)
  401614:	8f9080ac 	lw	s0,-32596(gp)
  401618:	27a30020 	addiu	v1,sp,32
  40161c:	8e660000 	lw	a2,0(s3)
  401620:	8e070000 	lw	a3,0(s0)
  401624:	10800078 	beqz	a0,401808 <main+0x8f0>
  401628:	00621821 	addu	v1,v1,v0
  40162c:	8f82801c 	lw	v0,-32740(gp)
  401630:	00000000 	nop
  401634:	24421e30 	addiu	v0,v0,7728
  401638:	8f85801c 	lw	a1,-32740(gp)
  40163c:	8f998064 	lw	t9,-32668(gp)
  401640:	00602021 	move	a0,v1
  401644:	24a51e8c 	addiu	a1,a1,7820
  401648:	0320f809 	jalr	t9
  40164c:	afa20010 	sw	v0,16(sp)
  401650:	8fbc0018 	lw	gp,24(sp)
  401654:	24040006 	li	a0,6
  401658:	8f998070 	lw	t9,-32656(gp)
  40165c:	00000000 	nop
  401660:	0320f809 	jalr	t9
  401664:	27a50020 	addiu	a1,sp,32
  401668:	8e040000 	lw	a0,0(s0)
  40166c:	8fbc0018 	lw	gp,24(sp)
  401670:	10800068 	beqz	a0,401814 <main+0x8fc>
  401674:	00000000 	nop
  401678:	8f998048 	lw	t9,-32696(gp)
  40167c:	00000000 	nop
  401680:	0320f809 	jalr	t9
  401684:	24050001 	li	a1,1
  401688:	8fbc0018 	lw	gp,24(sp)
  40168c:	2403ffff 	li	v1,-1
  401690:	8f9480c8 	lw	s4,-32568(gp)
  401694:	10430099 	beq	v0,v1,4018fc <main+0x9e4>
  401698:	ae820000 	sw	v0,0(s4)
  40169c:	8f84801c 	lw	a0,-32740(gp)
  4016a0:	8f85801c 	lw	a1,-32740(gp)
  4016a4:	8f99807c 	lw	t9,-32644(gp)
  4016a8:	24841eac 	addiu	a0,a0,7852
  4016ac:	0320f809 	jalr	t9
  4016b0:	24a51ec8 	addiu	a1,a1,7880
  4016b4:	8fbc0018 	lw	gp,24(sp)
  4016b8:	10400014 	beqz	v0,40170c <main+0x7f4>
  4016bc:	00408021 	move	s0,v0
  4016c0:	8f9980e8 	lw	t9,-32536(gp)
  4016c4:	00000000 	nop
  4016c8:	0320f809 	jalr	t9
  4016cc:	00000000 	nop
  4016d0:	8fbc0018 	lw	gp,24(sp)
  4016d4:	02002021 	move	a0,s0
  4016d8:	8f85801c 	lw	a1,-32740(gp)
  4016dc:	8f9980b0 	lw	t9,-32592(gp)
  4016e0:	24a51ecc 	addiu	a1,a1,7884
  4016e4:	0320f809 	jalr	t9
  4016e8:	00403021 	move	a2,v0
  4016ec:	8fbc0018 	lw	gp,24(sp)
  4016f0:	00000000 	nop
  4016f4:	8f998074 	lw	t9,-32652(gp)
  4016f8:	00000000 	nop
  4016fc:	0320f809 	jalr	t9
  401700:	02002021 	move	a0,s0
  401704:	8fbc0018 	lw	gp,24(sp)
  401708:	00000000 	nop
  40170c:	8f99809c 	lw	t9,-32612(gp)
  401710:	8f85805c 	lw	a1,-32676(gp)
  401714:	0320f809 	jalr	t9
  401718:	2404000f 	li	a0,15
  40171c:	8e300000 	lw	s0,0(s1)
  401720:	24020001 	li	v0,1
  401724:	8fbc0018 	lw	gp,24(sp)
  401728:	12020042 	beq	s0,v0,401834 <main+0x91c>
  40172c:	00000000 	nop
  401730:	8f908090 	lw	s0,-32624(gp)
  401734:	00000000 	nop
  401738:	8e020000 	lw	v0,0(s0)
  40173c:	00000000 	nop
  401740:	10400015 	beqz	v0,401798 <main+0x880>
  401744:	00000000 	nop
  401748:	8f91801c 	lw	s1,-32740(gp)
  40174c:	8f92801c 	lw	s2,-32740(gp)
  401750:	8f9980b4 	lw	t9,-32588(gp)
  401754:	8e840000 	lw	a0,0(s4)
  401758:	26251f60 	addiu	a1,s1,8032
  40175c:	0320f809 	jalr	t9
  401760:	24060001 	li	a2,1
  401764:	8fbc0018 	lw	gp,24(sp)
  401768:	00000000 	nop
  40176c:	8f998058 	lw	t9,-32680(gp)
  401770:	0440001a 	bltz	v0,4017dc <main+0x8c4>
  401774:	00000000 	nop
  401778:	8f9980d4 	lw	t9,-32556(gp)
  40177c:	8e640000 	lw	a0,0(s3)
  401780:	0320f809 	jalr	t9
  401784:	00000000 	nop
  401788:	8e030000 	lw	v1,0(s0)
  40178c:	8fbc0018 	lw	gp,24(sp)
  401790:	1460ffef 	bnez	v1,401750 <main+0x838>
  401794:	00000000 	nop
  401798:	8f99803c 	lw	t9,-32708(gp)
  40179c:	00000000 	nop
  4017a0:	0320f809 	jalr	t9
  4017a4:	00000000 	nop
  4017a8:	8fbc0018 	lw	gp,24(sp)
  4017ac:	8fbf020c 	lw	ra,524(sp)
  4017b0:	8fbe0208 	lw	s8,520(sp)
  4017b4:	8fb70204 	lw	s7,516(sp)
  4017b8:	8fb60200 	lw	s6,512(sp)
  4017bc:	8fb501fc 	lw	s5,508(sp)
  4017c0:	8fb401f8 	lw	s4,504(sp)
  4017c4:	8fb301f4 	lw	s3,500(sp)
  4017c8:	8fb201f0 	lw	s2,496(sp)
  4017cc:	8fb101ec 	lw	s1,492(sp)
  4017d0:	8fb001e8 	lw	s0,488(sp)
  4017d4:	03e00008 	jr	ra
  4017d8:	27bd0210 	addiu	sp,sp,528
  4017dc:	0320f809 	jalr	t9
  4017e0:	00000000 	nop
  4017e4:	8fbc0018 	lw	gp,24(sp)
  4017e8:	8c460000 	lw	a2,0(v0)
  4017ec:	8f998070 	lw	t9,-32656(gp)
  4017f0:	24040003 	li	a0,3
  4017f4:	0320f809 	jalr	t9
  4017f8:	26451cfc 	addiu	a1,s2,7420
  4017fc:	8fbc0018 	lw	gp,24(sp)
  401800:	1000ffdd 	b	401778 <main+0x860>
  401804:	00000000 	nop
  401808:	8f82801c 	lw	v0,-32740(gp)
  40180c:	1000ff8a 	b	401638 <main+0x720>
  401810:	24421ed0 	addiu	v0,v0,7888
  401814:	8f99803c 	lw	t9,-32708(gp)
  401818:	00000000 	nop
  40181c:	0320f809 	jalr	t9
  401820:	00000000 	nop
  401824:	8fbc0018 	lw	gp,24(sp)
  401828:	8e040000 	lw	a0,0(s0)
  40182c:	1000ff92 	b	401678 <main+0x760>
  401830:	00000000 	nop
  401834:	8f998030 	lw	t9,-32720(gp)
  401838:	00000000 	nop
  40183c:	0320f809 	jalr	t9
  401840:	24040003 	li	a0,3
  401844:	8fbc0018 	lw	gp,24(sp)
  401848:	1040000f 	beqz	v0,401888 <main+0x970>
  40184c:	00002021 	move	a0,zero
  401850:	8f998058 	lw	t9,-32680(gp)
  401854:	00000000 	nop
  401858:	0320f809 	jalr	t9
  40185c:	00000000 	nop
  401860:	8fbc0018 	lw	gp,24(sp)
  401864:	8c460000 	lw	a2,0(v0)
  401868:	8f85801c 	lw	a1,-32740(gp)
  40186c:	8f998070 	lw	t9,-32656(gp)
  401870:	24a51ed4 	addiu	a1,a1,7892
  401874:	0320f809 	jalr	t9
  401878:	24040003 	li	a0,3
  40187c:	8fbc0018 	lw	gp,24(sp)
  401880:	1000ffab 	b	401730 <main+0x818>
  401884:	00000000 	nop
  401888:	8f828050 	lw	v0,-32688(gp)
  40188c:	8f9980cc 	lw	t9,-32564(gp)
  401890:	8c430000 	lw	v1,0(v0)
  401894:	00000000 	nop
  401898:	afa301e4 	sw	v1,484(sp)
  40189c:	24050002 	li	a1,2
  4018a0:	0320f809 	jalr	t9
  4018a4:	27a601e4 	addiu	a2,sp,484
  4018a8:	8fbc0018 	lw	gp,24(sp)
  4018ac:	14400025 	bnez	v0,401944 <main+0xa2c>
  4018b0:	00000000 	nop
  4018b4:	8f8280dc 	lw	v0,-32548(gp)
  4018b8:	1000ff9d 	b	401730 <main+0x818>
  4018bc:	ac500000 	sw	s0,0(v0)
  4018c0:	8f8280f8 	lw	v0,-32520(gp)
  4018c4:	8f9980e0 	lw	t9,-32544(gp)
  4018c8:	8c440000 	lw	a0,0(v0)
  4018cc:	1000fe8d 	b	401304 <main+0x3ec>
  4018d0:	00000000 	nop
  4018d4:	8f9980f8 	lw	t9,-32520(gp)
  4018d8:	00000000 	nop
  4018dc:	8f240000 	lw	a0,0(t9)
  4018e0:	8f9980e0 	lw	t9,-32544(gp)
  4018e4:	1000fe87 	b	401304 <main+0x3ec>
  4018e8:	00000000 	nop
  4018ec:	8f998054 	lw	t9,-32684(gp)
  4018f0:	00000000 	nop
  4018f4:	0320f809 	jalr	t9
  4018f8:	00002021 	move	a0,zero
  4018fc:	8f998058 	lw	t9,-32680(gp)
  401900:	00000000 	nop
  401904:	0320f809 	jalr	t9
  401908:	00000000 	nop
  40190c:	8fbc0018 	lw	gp,24(sp)
  401910:	8c470000 	lw	a3,0(v0)
  401914:	8f8380ac 	lw	v1,-32596(gp)
  401918:	8f85801c 	lw	a1,-32740(gp)
  40191c:	8f998070 	lw	t9,-32656(gp)
  401920:	8c660000 	lw	a2,0(v1)
  401924:	24040003 	li	a0,3
  401928:	0320f809 	jalr	t9
  40192c:	24a51f04 	addiu	a1,a1,7940
  401930:	8fbc0018 	lw	gp,24(sp)
  401934:	00000000 	nop
  401938:	8f998054 	lw	t9,-32684(gp)
  40193c:	1000fe77 	b	40131c <main+0x404>
  401940:	24040001 	li	a0,1
  401944:	8f998058 	lw	t9,-32680(gp)
  401948:	00000000 	nop
  40194c:	0320f809 	jalr	t9
  401950:	00000000 	nop
  401954:	8fbc0018 	lw	gp,24(sp)
  401958:	8c460000 	lw	a2,0(v0)
  40195c:	8f85801c 	lw	a1,-32740(gp)
  401960:	8f998070 	lw	t9,-32656(gp)
  401964:	24a51f28 	addiu	a1,a1,7976
  401968:	0320f809 	jalr	t9
  40196c:	24040003 	li	a0,3
  401970:	8fbc0018 	lw	gp,24(sp)
  401974:	1000ff6e 	b	401730 <main+0x818>
  401978:	00000000 	nop
  40197c:	00000000 	nop
  401980:	3c1c0005 	lui	gp,0x5
  401984:	279c8750 	addiu	gp,gp,-30896
  401988:	0399e021 	addu	gp,gp,t9
  40198c:	27bdffd8 	addiu	sp,sp,-40
  401990:	afbf0020 	sw	ra,32(sp)
  401994:	afb1001c 	sw	s1,28(sp)
  401998:	afb00018 	sw	s0,24(sp)
  40199c:	afbc0010 	sw	gp,16(sp)
  4019a0:	8f998018 	lw	t9,-32744(gp)
  4019a4:	00000000 	nop
  4019a8:	27392004 	addiu	t9,t9,8196
  4019ac:	8f39fffc 	lw	t9,-4(t9)
  4019b0:	2402ffff 	li	v0,-1
  4019b4:	8f908018 	lw	s0,-32744(gp)
  4019b8:	00000000 	nop
  4019bc:	26102000 	addiu	s0,s0,8192
  4019c0:	13220009 	beq	t9,v0,4019e8 <main+0xad0>
  4019c4:	2411ffff 	li	s1,-1
  4019c8:	2610fffc 	addiu	s0,s0,-4
  4019cc:	0320f809 	jalr	t9
  4019d0:	00000000 	nop
  4019d4:	8fbc0010 	lw	gp,16(sp)
  4019d8:	8e190000 	lw	t9,0(s0)
  4019dc:	00000000 	nop
  4019e0:	1731fffa 	bne	t9,s1,4019cc <main+0xab4>
  4019e4:	2610fffc 	addiu	s0,s0,-4
  4019e8:	8fbf0020 	lw	ra,32(sp)
  4019ec:	8fb1001c 	lw	s1,28(sp)
  4019f0:	8fb00018 	lw	s0,24(sp)
  4019f4:	03e00008 	jr	ra
  4019f8:	27bd0028 	addiu	sp,sp,40
  4019fc:	00000000 	nop

Disassembly of section .fini:

00401c40 <_fini>:
  401c40:	3c1c0005 	lui	gp,0x5
  401c44:	279c8490 	addiu	gp,gp,-31600
  401c48:	0399e021 	addu	gp,gp,t9
  401c4c:	27bdffe0 	addiu	sp,sp,-32
  401c50:	afbc0010 	sw	gp,16(sp)
  401c54:	afbf001c 	sw	ra,28(sp)
  401c58:	afbc0018 	sw	gp,24(sp)
  401c5c:	04110001 	bal	401c64 <_fini+0x24>
  401c60:	00000000 	nop
  401c64:	3c1c0005 	lui	gp,0x5
  401c68:	279c846c 	addiu	gp,gp,-31636
  401c6c:	039fe021 	addu	gp,gp,ra
  401c70:	8f99801c 	lw	t9,-32740(gp)
  401c74:	00000000 	nop
  401c78:	27390ab0 	addiu	t9,t9,2736
  401c7c:	0320f809 	jalr	t9
  401c80:	00000000 	nop
  401c84:	8fbc0010 	lw	gp,16(sp)
  401c88:	00000000 	nop
  401c8c:	8fbf001c 	lw	ra,28(sp)
  401c90:	03e00008 	jr	ra
  401c94:	27bd0020 	addiu	sp,sp,32
